
mastermind.elf:     file format elf32-avr

Sections:
Idx Name          Size      VMA       LMA       File off  Algn
  0 .data         00000088  00800100  00000ff2  00001086  2**0
                  CONTENTS, ALLOC, LOAD, DATA
  1 .text         00000ff2  00000000  00000000  00000094  2**1
                  CONTENTS, ALLOC, LOAD, READONLY, CODE
  2 .bss          0000004d  00800188  00800188  0000110e  2**0
                  ALLOC
  3 .comment      00000030  00000000  00000000  0000110e  2**0
                  CONTENTS, READONLY
  4 .note.gnu.avr.deviceinfo 00000040  00000000  00000000  00001140  2**2
                  CONTENTS, READONLY
  5 .debug_aranges 000000b8  00000000  00000000  00001180  2**0
                  CONTENTS, READONLY, DEBUGGING
  6 .debug_info   00000e74  00000000  00000000  00001238  2**0
                  CONTENTS, READONLY, DEBUGGING
  7 .debug_abbrev 000008cc  00000000  00000000  000020ac  2**0
                  CONTENTS, READONLY, DEBUGGING
  8 .debug_line   0000086e  00000000  00000000  00002978  2**0
                  CONTENTS, READONLY, DEBUGGING
  9 .debug_frame  000002ac  00000000  00000000  000031e8  2**2
                  CONTENTS, READONLY, DEBUGGING
 10 .debug_str    00000569  00000000  00000000  00003494  2**0
                  CONTENTS, READONLY, DEBUGGING
 11 .debug_loc    0000058e  00000000  00000000  000039fd  2**0
                  CONTENTS, READONLY, DEBUGGING
 12 .debug_ranges 00000088  00000000  00000000  00003f8b  2**0
                  CONTENTS, READONLY, DEBUGGING

Disassembly of section .text:

00000000 <__vectors>:
   0:	0c 94 34 00 	jmp	0x68	; 0x68 <__ctors_end>
   4:	0c 94 51 00 	jmp	0xa2	; 0xa2 <__bad_interrupt>
   8:	0c 94 51 00 	jmp	0xa2	; 0xa2 <__bad_interrupt>
   c:	0c 94 73 00 	jmp	0xe6	; 0xe6 <__vector_3>
  10:	0c 94 51 00 	jmp	0xa2	; 0xa2 <__bad_interrupt>
  14:	0c 94 51 00 	jmp	0xa2	; 0xa2 <__bad_interrupt>
  18:	0c 94 51 00 	jmp	0xa2	; 0xa2 <__bad_interrupt>
  1c:	0c 94 51 00 	jmp	0xa2	; 0xa2 <__bad_interrupt>
  20:	0c 94 51 00 	jmp	0xa2	; 0xa2 <__bad_interrupt>
  24:	0c 94 51 00 	jmp	0xa2	; 0xa2 <__bad_interrupt>
  28:	0c 94 51 00 	jmp	0xa2	; 0xa2 <__bad_interrupt>
  2c:	0c 94 51 00 	jmp	0xa2	; 0xa2 <__bad_interrupt>
  30:	0c 94 51 00 	jmp	0xa2	; 0xa2 <__bad_interrupt>
  34:	0c 94 51 00 	jmp	0xa2	; 0xa2 <__bad_interrupt>
  38:	0c 94 51 00 	jmp	0xa2	; 0xa2 <__bad_interrupt>
  3c:	0c 94 51 00 	jmp	0xa2	; 0xa2 <__bad_interrupt>
  40:	0c 94 53 00 	jmp	0xa6	; 0xa6 <__vector_16>
  44:	0c 94 51 00 	jmp	0xa2	; 0xa2 <__bad_interrupt>
  48:	0c 94 d3 04 	jmp	0x9a6	; 0x9a6 <__vector_18>
  4c:	0c 94 0a 05 	jmp	0xa14	; 0xa14 <__vector_19>
  50:	0c 94 51 00 	jmp	0xa2	; 0xa2 <__bad_interrupt>
  54:	0c 94 51 00 	jmp	0xa2	; 0xa2 <__bad_interrupt>
  58:	0c 94 51 00 	jmp	0xa2	; 0xa2 <__bad_interrupt>
  5c:	0c 94 51 00 	jmp	0xa2	; 0xa2 <__bad_interrupt>
  60:	0c 94 51 00 	jmp	0xa2	; 0xa2 <__bad_interrupt>
  64:	0c 94 51 00 	jmp	0xa2	; 0xa2 <__bad_interrupt>

00000068 <__ctors_end>:
  68:	11 24       	eor	r1, r1
  6a:	1f be       	out	0x3f, r1	; 63
  6c:	cf ef       	ldi	r28, 0xFF	; 255
  6e:	d8 e0       	ldi	r29, 0x08	; 8
  70:	de bf       	out	0x3e, r29	; 62
  72:	cd bf       	out	0x3d, r28	; 61

00000074 <__do_copy_data>:
  74:	11 e0       	ldi	r17, 0x01	; 1
  76:	a0 e0       	ldi	r26, 0x00	; 0
  78:	b1 e0       	ldi	r27, 0x01	; 1
  7a:	e2 ef       	ldi	r30, 0xF2	; 242
  7c:	ff e0       	ldi	r31, 0x0F	; 15
  7e:	02 c0       	rjmp	.+4      	; 0x84 <__do_copy_data+0x10>
  80:	05 90       	lpm	r0, Z+
  82:	0d 92       	st	X+, r0
  84:	a8 38       	cpi	r26, 0x88	; 136
  86:	b1 07       	cpc	r27, r17
  88:	d9 f7       	brne	.-10     	; 0x80 <__do_copy_data+0xc>

0000008a <__do_clear_bss>:
  8a:	21 e0       	ldi	r18, 0x01	; 1
  8c:	a8 e8       	ldi	r26, 0x88	; 136
  8e:	b1 e0       	ldi	r27, 0x01	; 1
  90:	01 c0       	rjmp	.+2      	; 0x94 <.do_clear_bss_start>

00000092 <.do_clear_bss_loop>:
  92:	1d 92       	st	X+, r1

00000094 <.do_clear_bss_start>:
  94:	a5 3d       	cpi	r26, 0xD5	; 213
  96:	b2 07       	cpc	r27, r18
  98:	e1 f7       	brne	.-8      	; 0x92 <.do_clear_bss_loop>
  9a:	0e 94 c4 00 	call	0x188	; 0x188 <main>
  9e:	0c 94 f7 07 	jmp	0xfee	; 0xfee <_exit>

000000a2 <__bad_interrupt>:
  a2:	0c 94 00 00 	jmp	0	; 0x0 <__vectors>

000000a6 <__vector_16>:

char secret_code[4];
char user_code[4];

ISR(TIMER0_OVF_vect)
{
  a6:	1f 92       	push	r1
  a8:	0f 92       	push	r0
  aa:	00 90 5f 00 	lds	r0, 0x005F	; 0x80005f <__TEXT_REGION_LENGTH__+0x7e005f>
  ae:	0f 92       	push	r0
  b0:	11 24       	eor	r1, r1
  b2:	8f 93       	push	r24
  b4:	9f 93       	push	r25
  b6:	cf 93       	push	r28
  b8:	df 93       	push	r29
  ba:	cd b7       	in	r28, 0x3d	; 61
  bc:	de b7       	in	r29, 0x3e	; 62
	count++;
  be:	80 91 88 01 	lds	r24, 0x0188	; 0x800188 <__data_end>
  c2:	90 91 89 01 	lds	r25, 0x0189	; 0x800189 <__data_end+0x1>
  c6:	01 96       	adiw	r24, 0x01	; 1
  c8:	90 93 89 01 	sts	0x0189, r25	; 0x800189 <__data_end+0x1>
  cc:	80 93 88 01 	sts	0x0188, r24	; 0x800188 <__data_end>
}
  d0:	00 00       	nop
  d2:	df 91       	pop	r29
  d4:	cf 91       	pop	r28
  d6:	9f 91       	pop	r25
  d8:	8f 91       	pop	r24
  da:	0f 90       	pop	r0
  dc:	00 92 5f 00 	sts	0x005F, r0	; 0x80005f <__TEXT_REGION_LENGTH__+0x7e005f>
  e0:	0f 90       	pop	r0
  e2:	1f 90       	pop	r1
  e4:	18 95       	reti

000000e6 <__vector_3>:

ISR(PCINT0_vect)
{
  e6:	1f 92       	push	r1
  e8:	0f 92       	push	r0
  ea:	00 90 5f 00 	lds	r0, 0x005F	; 0x80005f <__TEXT_REGION_LENGTH__+0x7e005f>
  ee:	0f 92       	push	r0
  f0:	11 24       	eor	r1, r1
  f2:	2f 93       	push	r18
  f4:	3f 93       	push	r19
  f6:	4f 93       	push	r20
  f8:	5f 93       	push	r21
  fa:	6f 93       	push	r22
  fc:	7f 93       	push	r23
  fe:	8f 93       	push	r24
 100:	9f 93       	push	r25
 102:	af 93       	push	r26
 104:	bf 93       	push	r27
 106:	ef 93       	push	r30
 108:	ff 93       	push	r31
 10a:	cf 93       	push	r28
 10c:	df 93       	push	r29
 10e:	cd b7       	in	r28, 0x3d	; 61
 110:	de b7       	in	r29, 0x3e	; 62
	LED_TOGGLE;
 112:	83 e2       	ldi	r24, 0x23	; 35
 114:	90 e0       	ldi	r25, 0x00	; 0
 116:	23 e2       	ldi	r18, 0x23	; 35
 118:	30 e0       	ldi	r19, 0x00	; 0
 11a:	f9 01       	movw	r30, r18
 11c:	20 81       	ld	r18, Z
 11e:	28 60       	ori	r18, 0x08	; 8
 120:	fc 01       	movw	r30, r24
 122:	20 83       	st	Z, r18
	if (SWITCH_PRESSED)
 124:	83 e2       	ldi	r24, 0x23	; 35
 126:	90 e0       	ldi	r25, 0x00	; 0
 128:	fc 01       	movw	r30, r24
 12a:	80 81       	ld	r24, Z
 12c:	88 23       	and	r24, r24
 12e:	bc f0       	brlt	.+46     	; 0x15e <__vector_3+0x78>
	{
		generateCode();
 130:	0e 94 80 03 	call	0x700	; 0x700 <generateCode>
		set_secret_code(secret_code);
 134:	86 e0       	ldi	r24, 0x06	; 6
 136:	91 e0       	ldi	r25, 0x01	; 1
 138:	0e 94 b2 03 	call	0x764	; 0x764 <set_secret_code>
		attempt = 12;
 13c:	8c e0       	ldi	r24, 0x0C	; 12
 13e:	90 e0       	ldi	r25, 0x00	; 0
 140:	90 93 05 01 	sts	0x0105, r25	; 0x800105 <attempt+0x1>
 144:	80 93 04 01 	sts	0x0104, r24	; 0x800104 <attempt>
		wait = 0;
 148:	10 92 8a 01 	sts	0x018A, r1	; 0x80018a <wait>
		LED_OFF;
 14c:	85 e2       	ldi	r24, 0x25	; 37
 14e:	90 e0       	ldi	r25, 0x00	; 0
 150:	25 e2       	ldi	r18, 0x25	; 37
 152:	30 e0       	ldi	r19, 0x00	; 0
 154:	f9 01       	movw	r30, r18
 156:	20 81       	ld	r18, Z
 158:	2f 7d       	andi	r18, 0xDF	; 223
 15a:	fc 01       	movw	r30, r24
 15c:	20 83       	st	Z, r18
	}
}
 15e:	00 00       	nop
 160:	df 91       	pop	r29
 162:	cf 91       	pop	r28
 164:	ff 91       	pop	r31
 166:	ef 91       	pop	r30
 168:	bf 91       	pop	r27
 16a:	af 91       	pop	r26
 16c:	9f 91       	pop	r25
 16e:	8f 91       	pop	r24
 170:	7f 91       	pop	r23
 172:	6f 91       	pop	r22
 174:	5f 91       	pop	r21
 176:	4f 91       	pop	r20
 178:	3f 91       	pop	r19
 17a:	2f 91       	pop	r18
 17c:	0f 90       	pop	r0
 17e:	00 92 5f 00 	sts	0x005F, r0	; 0x80005f <__TEXT_REGION_LENGTH__+0x7e005f>
 182:	0f 90       	pop	r0
 184:	1f 90       	pop	r1
 186:	18 95       	reti

00000188 <main>:

int main(void)
{
 188:	cf 93       	push	r28
 18a:	df 93       	push	r29
 18c:	cd b7       	in	r28, 0x3d	; 61
 18e:	de b7       	in	r29, 0x3e	; 62
 190:	e9 97       	sbiw	r28, 0x39	; 57
 192:	0f b6       	in	r0, 0x3f	; 63
 194:	f8 94       	cli
 196:	de bf       	out	0x3e, r29	; 62
 198:	0f be       	out	0x3f, r0	; 63
 19a:	cd bf       	out	0x3d, r28	; 61
	// initialize the uart
	InitUART(MYUBRR);
 19c:	87 e6       	ldi	r24, 0x67	; 103
 19e:	90 e0       	ldi	r25, 0x00	; 0
 1a0:	0e 94 a5 04 	call	0x94a	; 0x94a <InitUART>
        
    // Initialize the LED    
    LED_INIT;
 1a4:	84 e2       	ldi	r24, 0x24	; 36
 1a6:	90 e0       	ldi	r25, 0x00	; 0
 1a8:	24 e2       	ldi	r18, 0x24	; 36
 1aa:	30 e0       	ldi	r19, 0x00	; 0
 1ac:	f9 01       	movw	r30, r18
 1ae:	20 81       	ld	r18, Z
 1b0:	20 62       	ori	r18, 0x20	; 32
 1b2:	fc 01       	movw	r30, r24
 1b4:	20 83       	st	Z, r18
    LED_OFF;    
 1b6:	85 e2       	ldi	r24, 0x25	; 37
 1b8:	90 e0       	ldi	r25, 0x00	; 0
 1ba:	25 e2       	ldi	r18, 0x25	; 37
 1bc:	30 e0       	ldi	r19, 0x00	; 0
 1be:	f9 01       	movw	r30, r18
 1c0:	20 81       	ld	r18, Z
 1c2:	2f 7d       	andi	r18, 0xDF	; 223
 1c4:	fc 01       	movw	r30, r24
 1c6:	20 83       	st	Z, r18
	
	// Set interrupt in pin pb7
	PCMSK0 |= (1<<PCINT7);	// Pin Change Enable
 1c8:	8b e6       	ldi	r24, 0x6B	; 107
 1ca:	90 e0       	ldi	r25, 0x00	; 0
 1cc:	2b e6       	ldi	r18, 0x6B	; 107
 1ce:	30 e0       	ldi	r19, 0x00	; 0
 1d0:	f9 01       	movw	r30, r18
 1d2:	20 81       	ld	r18, Z
 1d4:	20 68       	ori	r18, 0x80	; 128
 1d6:	fc 01       	movw	r30, r24
 1d8:	20 83       	st	Z, r18
	PCICR |= (1<<PCIE0);	// Pin Change Interrupt Enable 0
 1da:	88 e6       	ldi	r24, 0x68	; 104
 1dc:	90 e0       	ldi	r25, 0x00	; 0
 1de:	28 e6       	ldi	r18, 0x68	; 104
 1e0:	30 e0       	ldi	r19, 0x00	; 0
 1e2:	f9 01       	movw	r30, r18
 1e4:	20 81       	ld	r18, Z
 1e6:	21 60       	ori	r18, 0x01	; 1
 1e8:	fc 01       	movw	r30, r24
 1ea:	20 83       	st	Z, r18
	sei(); // Global Interrupt Enable
 1ec:	78 94       	sei
	
	// set timer for random counter.
	TCCR0B |= (1<<CS00);
 1ee:	85 e4       	ldi	r24, 0x45	; 69
 1f0:	90 e0       	ldi	r25, 0x00	; 0
 1f2:	25 e4       	ldi	r18, 0x45	; 69
 1f4:	30 e0       	ldi	r19, 0x00	; 0
 1f6:	f9 01       	movw	r30, r18
 1f8:	20 81       	ld	r18, Z
 1fa:	21 60       	ori	r18, 0x01	; 1
 1fc:	fc 01       	movw	r30, r24
 1fe:	20 83       	st	Z, r18
	TCCR0B |= (1<<CS02);
 200:	85 e4       	ldi	r24, 0x45	; 69
 202:	90 e0       	ldi	r25, 0x00	; 0
 204:	25 e4       	ldi	r18, 0x45	; 69
 206:	30 e0       	ldi	r19, 0x00	; 0
 208:	f9 01       	movw	r30, r18
 20a:	20 81       	ld	r18, Z
 20c:	24 60       	ori	r18, 0x04	; 4
 20e:	fc 01       	movw	r30, r24
 210:	20 83       	st	Z, r18
	TIMSK0 |= (1<<TOIE1);
 212:	8e e6       	ldi	r24, 0x6E	; 110
 214:	90 e0       	ldi	r25, 0x00	; 0
 216:	2e e6       	ldi	r18, 0x6E	; 110
 218:	30 e0       	ldi	r19, 0x00	; 0
 21a:	f9 01       	movw	r30, r18
 21c:	20 81       	ld	r18, Z
 21e:	21 60       	ori	r18, 0x01	; 1
 220:	fc 01       	movw	r30, r24
 222:	20 83       	st	Z, r18
	
	DDRB |= (1<<DDB3);		// Pin b3 is output
 224:	84 e2       	ldi	r24, 0x24	; 36
 226:	90 e0       	ldi	r25, 0x00	; 0
 228:	24 e2       	ldi	r18, 0x24	; 36
 22a:	30 e0       	ldi	r19, 0x00	; 0
 22c:	f9 01       	movw	r30, r18
 22e:	20 81       	ld	r18, Z
 230:	28 60       	ori	r18, 0x08	; 8
 232:	fc 01       	movw	r30, r24
 234:	20 83       	st	Z, r18
	DDRB &= ~(1<<DDB7);		// pin b7 is input
 236:	84 e2       	ldi	r24, 0x24	; 36
 238:	90 e0       	ldi	r25, 0x00	; 0
 23a:	24 e2       	ldi	r18, 0x24	; 36
 23c:	30 e0       	ldi	r19, 0x00	; 0
 23e:	f9 01       	movw	r30, r18
 240:	20 81       	ld	r18, Z
 242:	2f 77       	andi	r18, 0x7F	; 127
 244:	fc 01       	movw	r30, r24
 246:	20 83       	st	Z, r18
    
	secret_code[0] = '1';
 248:	81 e3       	ldi	r24, 0x31	; 49
 24a:	80 93 06 01 	sts	0x0106, r24	; 0x800106 <secret_code>
	secret_code[1] = '1';
 24e:	81 e3       	ldi	r24, 0x31	; 49
 250:	80 93 07 01 	sts	0x0107, r24	; 0x800107 <secret_code+0x1>
	secret_code[2] = '2';
 254:	82 e3       	ldi	r24, 0x32	; 50
 256:	80 93 08 01 	sts	0x0108, r24	; 0x800108 <secret_code+0x2>
	secret_code[3] = '2';
 25a:	82 e3       	ldi	r24, 0x32	; 50
 25c:	80 93 09 01 	sts	0x0109, r24	; 0x800109 <secret_code+0x3>
	secret_code[4] = NULL;
 260:	10 92 0a 01 	sts	0x010A, r1	; 0x80010a <secret_code+0x4>
    // Just as an example, the user code is set statically
    // TODO: Get the code from the user
    user_code[0] = '1';
 264:	81 e3       	ldi	r24, 0x31	; 49
 266:	80 93 cf 01 	sts	0x01CF, r24	; 0x8001cf <user_code>
    user_code[1] = '2';
 26a:	82 e3       	ldi	r24, 0x32	; 50
 26c:	80 93 d0 01 	sts	0x01D0, r24	; 0x8001d0 <user_code+0x1>
    user_code[2] = '3';
 270:	83 e3       	ldi	r24, 0x33	; 51
 272:	80 93 d1 01 	sts	0x01D1, r24	; 0x8001d1 <user_code+0x2>
    user_code[3] = '4';
 276:	84 e3       	ldi	r24, 0x34	; 52
 278:	80 93 d2 01 	sts	0x01D2, r24	; 0x8001d2 <user_code+0x3>
	user_code[4] = NULL;
 27c:	10 92 d3 01 	sts	0x01D3, r1	; 0x8001d3 <mm_result>
    
    // Check the user code against the secret code
    mm_result = check_secret_code(user_code);
 280:	8f ec       	ldi	r24, 0xCF	; 207
 282:	91 e0       	ldi	r25, 0x01	; 1
 284:	0e 94 d9 03 	call	0x7b2	; 0x7b2 <check_secret_code>
 288:	90 93 d4 01 	sts	0x01D4, r25	; 0x8001d4 <mm_result+0x1>
 28c:	80 93 d3 01 	sts	0x01D3, r24	; 0x8001d3 <mm_result>
    // Stop executing
    // TODO: Give the user 12 opportunities
    // TODO: Start over once a game has finished
    while (1) 
    {
		char byte2send = '0';
 290:	80 e3       	ldi	r24, 0x30	; 48
 292:	89 83       	std	Y+1, r24	; 0x01
		
		
		srand(count);
 294:	80 91 88 01 	lds	r24, 0x0188	; 0x800188 <__data_end>
 298:	90 91 89 01 	lds	r25, 0x0189	; 0x800189 <__data_end+0x1>
 29c:	0e 94 89 07 	call	0xf12	; 0xf12 <srand>
		
		user_code[4] = NULL;
 2a0:	10 92 d3 01 	sts	0x01D3, r1	; 0x8001d3 <mm_result>
		
		TransmitString(secret_code);
 2a4:	86 e0       	ldi	r24, 0x06	; 6
 2a6:	91 e0       	ldi	r25, 0x01	; 1
 2a8:	0e 94 d6 05 	call	0xbac	; 0xbac <TransmitString>
		TransmitString(user_code);
 2ac:	8f ec       	ldi	r24, 0xCF	; 207
 2ae:	91 e0       	ldi	r25, 0x01	; 1
 2b0:	0e 94 d6 05 	call	0xbac	; 0xbac <TransmitString>
		
		mm_result = check_secret_code(user_code);
 2b4:	8f ec       	ldi	r24, 0xCF	; 207
 2b6:	91 e0       	ldi	r25, 0x01	; 1
 2b8:	0e 94 d9 03 	call	0x7b2	; 0x7b2 <check_secret_code>
 2bc:	90 93 d4 01 	sts	0x01D4, r25	; 0x8001d4 <mm_result+0x1>
 2c0:	80 93 d3 01 	sts	0x01D3, r24	; 0x8001d3 <mm_result>
		
		byte2send = mm_result.correct_num_and_pos + '0';
 2c4:	80 91 d3 01 	lds	r24, 0x01D3	; 0x8001d3 <mm_result>
 2c8:	80 5d       	subi	r24, 0xD0	; 208
 2ca:	89 83       	std	Y+1, r24	; 0x01
		TransmitByte(byte2send);
 2cc:	89 81       	ldd	r24, Y+1	; 0x01
 2ce:	0e 94 6d 05 	call	0xada	; 0xada <TransmitByte>
		byte2send = mm_result.correct_num + '0';
 2d2:	80 91 d4 01 	lds	r24, 0x01D4	; 0x8001d4 <mm_result+0x1>
 2d6:	80 5d       	subi	r24, 0xD0	; 208
 2d8:	89 83       	std	Y+1, r24	; 0x01
		TransmitByte(byte2send);
 2da:	89 81       	ldd	r24, Y+1	; 0x01
 2dc:	0e 94 6d 05 	call	0xada	; 0xada <TransmitByte>
		
		
		if (attempt)
 2e0:	80 91 04 01 	lds	r24, 0x0104	; 0x800104 <attempt>
 2e4:	90 91 05 01 	lds	r25, 0x0105	; 0x800105 <attempt+0x1>
 2e8:	89 2b       	or	r24, r25
 2ea:	09 f4       	brne	.+2      	; 0x2ee <main+0x166>
 2ec:	00 c2       	rjmp	.+1024   	; 0x6ee <__LOCK_REGION_LENGTH__+0x2ee>
		{
			if(mm_result.correct_num_and_pos == 4)
 2ee:	80 91 d3 01 	lds	r24, 0x01D3	; 0x8001d3 <mm_result>
 2f2:	84 30       	cpi	r24, 0x04	; 4
 2f4:	09 f0       	breq	.+2      	; 0x2f8 <main+0x170>
 2f6:	e9 c1       	rjmp	.+978    	; 0x6ca <__LOCK_REGION_LENGTH__+0x2ca>
			{
				LED_ON;
 2f8:	85 e2       	ldi	r24, 0x25	; 37
 2fa:	90 e0       	ldi	r25, 0x00	; 0
 2fc:	25 e2       	ldi	r18, 0x25	; 37
 2fe:	30 e0       	ldi	r19, 0x00	; 0
 300:	f9 01       	movw	r30, r18
 302:	20 81       	ld	r18, Z
 304:	20 62       	ori	r18, 0x20	; 32
 306:	fc 01       	movw	r30, r24
 308:	20 83       	st	Z, r18
 30a:	80 e0       	ldi	r24, 0x00	; 0
 30c:	90 e0       	ldi	r25, 0x00	; 0
 30e:	a8 ec       	ldi	r26, 0xC8	; 200
 310:	b2 e4       	ldi	r27, 0x42	; 66
 312:	8a 83       	std	Y+2, r24	; 0x02
 314:	9b 83       	std	Y+3, r25	; 0x03
 316:	ac 83       	std	Y+4, r26	; 0x04
 318:	bd 83       	std	Y+5, r27	; 0x05

	__builtin_avr_delay_cycles(__ticks_dc);

#else
	uint16_t __ticks;
	__tmp = ((F_CPU) / 4e3) * __ms;
 31a:	20 e0       	ldi	r18, 0x00	; 0
 31c:	30 e0       	ldi	r19, 0x00	; 0
 31e:	4a e7       	ldi	r20, 0x7A	; 122
 320:	55 e4       	ldi	r21, 0x45	; 69
 322:	6a 81       	ldd	r22, Y+2	; 0x02
 324:	7b 81       	ldd	r23, Y+3	; 0x03
 326:	8c 81       	ldd	r24, Y+4	; 0x04
 328:	9d 81       	ldd	r25, Y+5	; 0x05
 32a:	0e 94 7b 06 	call	0xcf6	; 0xcf6 <__mulsf3>
 32e:	dc 01       	movw	r26, r24
 330:	cb 01       	movw	r24, r22
 332:	88 ab       	std	Y+48, r24	; 0x30
 334:	99 ab       	std	Y+49, r25	; 0x31
 336:	aa ab       	std	Y+50, r26	; 0x32
 338:	bb ab       	std	Y+51, r27	; 0x33
	if (__tmp < 1.0)
 33a:	20 e0       	ldi	r18, 0x00	; 0
 33c:	30 e0       	ldi	r19, 0x00	; 0
 33e:	40 e8       	ldi	r20, 0x80	; 128
 340:	5f e3       	ldi	r21, 0x3F	; 63
 342:	68 a9       	ldd	r22, Y+48	; 0x30
 344:	79 a9       	ldd	r23, Y+49	; 0x31
 346:	8a a9       	ldd	r24, Y+50	; 0x32
 348:	9b a9       	ldd	r25, Y+51	; 0x33
 34a:	0e 94 f5 05 	call	0xbea	; 0xbea <__cmpsf2>
 34e:	88 23       	and	r24, r24
 350:	2c f4       	brge	.+10     	; 0x35c <main+0x1d4>
		__ticks = 1;
 352:	81 e0       	ldi	r24, 0x01	; 1
 354:	90 e0       	ldi	r25, 0x00	; 0
 356:	9d ab       	std	Y+53, r25	; 0x35
 358:	8c ab       	std	Y+52, r24	; 0x34
 35a:	3f c0       	rjmp	.+126    	; 0x3da <main+0x252>
	else if (__tmp > 65535)
 35c:	20 e0       	ldi	r18, 0x00	; 0
 35e:	3f ef       	ldi	r19, 0xFF	; 255
 360:	4f e7       	ldi	r20, 0x7F	; 127
 362:	57 e4       	ldi	r21, 0x47	; 71
 364:	68 a9       	ldd	r22, Y+48	; 0x30
 366:	79 a9       	ldd	r23, Y+49	; 0x31
 368:	8a a9       	ldd	r24, Y+50	; 0x32
 36a:	9b a9       	ldd	r25, Y+51	; 0x33
 36c:	0e 94 76 06 	call	0xcec	; 0xcec <__gesf2>
 370:	18 16       	cp	r1, r24
 372:	4c f5       	brge	.+82     	; 0x3c6 <main+0x23e>
	{
		//	__ticks = requested delay in 1/10 ms
		__ticks = (uint16_t) (__ms * 10.0);
 374:	20 e0       	ldi	r18, 0x00	; 0
 376:	30 e0       	ldi	r19, 0x00	; 0
 378:	40 e2       	ldi	r20, 0x20	; 32
 37a:	51 e4       	ldi	r21, 0x41	; 65
 37c:	6a 81       	ldd	r22, Y+2	; 0x02
 37e:	7b 81       	ldd	r23, Y+3	; 0x03
 380:	8c 81       	ldd	r24, Y+4	; 0x04
 382:	9d 81       	ldd	r25, Y+5	; 0x05
 384:	0e 94 7b 06 	call	0xcf6	; 0xcf6 <__mulsf3>
 388:	dc 01       	movw	r26, r24
 38a:	cb 01       	movw	r24, r22
 38c:	bc 01       	movw	r22, r24
 38e:	cd 01       	movw	r24, r26
 390:	0e 94 fa 05 	call	0xbf4	; 0xbf4 <__fixunssfsi>
 394:	dc 01       	movw	r26, r24
 396:	cb 01       	movw	r24, r22
 398:	9d ab       	std	Y+53, r25	; 0x35
 39a:	8c ab       	std	Y+52, r24	; 0x34
 39c:	0f c0       	rjmp	.+30     	; 0x3bc <main+0x234>
 39e:	80 e9       	ldi	r24, 0x90	; 144
 3a0:	91 e0       	ldi	r25, 0x01	; 1
 3a2:	9f ab       	std	Y+55, r25	; 0x37
 3a4:	8e ab       	std	Y+54, r24	; 0x36
    milliseconds can be achieved.
 */
void
_delay_loop_2(uint16_t __count)
{
	__asm__ volatile (
 3a6:	8e a9       	ldd	r24, Y+54	; 0x36
 3a8:	9f a9       	ldd	r25, Y+55	; 0x37
 3aa:	01 97       	sbiw	r24, 0x01	; 1
 3ac:	f1 f7       	brne	.-4      	; 0x3aa <main+0x222>
 3ae:	9f ab       	std	Y+55, r25	; 0x37
 3b0:	8e ab       	std	Y+54, r24	; 0x36
		while(__ticks)
		{
			// wait 1/10 ms
			_delay_loop_2(((F_CPU) / 4e3) / 10);
			__ticks --;
 3b2:	8c a9       	ldd	r24, Y+52	; 0x34
 3b4:	9d a9       	ldd	r25, Y+53	; 0x35
 3b6:	01 97       	sbiw	r24, 0x01	; 1
 3b8:	9d ab       	std	Y+53, r25	; 0x35
 3ba:	8c ab       	std	Y+52, r24	; 0x34
		__ticks = 1;
	else if (__tmp > 65535)
	{
		//	__ticks = requested delay in 1/10 ms
		__ticks = (uint16_t) (__ms * 10.0);
		while(__ticks)
 3bc:	8c a9       	ldd	r24, Y+52	; 0x34
 3be:	9d a9       	ldd	r25, Y+53	; 0x35
 3c0:	89 2b       	or	r24, r25
 3c2:	69 f7       	brne	.-38     	; 0x39e <main+0x216>
 3c4:	14 c0       	rjmp	.+40     	; 0x3ee <main+0x266>
			__ticks --;
		}
		return;
	}
	else
		__ticks = (uint16_t)__tmp;
 3c6:	68 a9       	ldd	r22, Y+48	; 0x30
 3c8:	79 a9       	ldd	r23, Y+49	; 0x31
 3ca:	8a a9       	ldd	r24, Y+50	; 0x32
 3cc:	9b a9       	ldd	r25, Y+51	; 0x33
 3ce:	0e 94 fa 05 	call	0xbf4	; 0xbf4 <__fixunssfsi>
 3d2:	dc 01       	movw	r26, r24
 3d4:	cb 01       	movw	r24, r22
 3d6:	9d ab       	std	Y+53, r25	; 0x35
 3d8:	8c ab       	std	Y+52, r24	; 0x34
 3da:	8c a9       	ldd	r24, Y+52	; 0x34
 3dc:	9d a9       	ldd	r25, Y+53	; 0x35
 3de:	99 af       	std	Y+57, r25	; 0x39
 3e0:	88 af       	std	Y+56, r24	; 0x38
 3e2:	88 ad       	ldd	r24, Y+56	; 0x38
 3e4:	99 ad       	ldd	r25, Y+57	; 0x39
 3e6:	01 97       	sbiw	r24, 0x01	; 1
 3e8:	f1 f7       	brne	.-4      	; 0x3e6 <main+0x25e>
 3ea:	99 af       	std	Y+57, r25	; 0x39
 3ec:	88 af       	std	Y+56, r24	; 0x38
				_delay_ms(100);
				TransmitString("");
 3ee:	8a e0       	ldi	r24, 0x0A	; 10
 3f0:	91 e0       	ldi	r25, 0x01	; 1
 3f2:	0e 94 d6 05 	call	0xbac	; 0xbac <TransmitString>
				TransmitString("\r\nYou are my Mastermind\r\n");
 3f6:	8b e0       	ldi	r24, 0x0B	; 11
 3f8:	91 e0       	ldi	r25, 0x01	; 1
 3fa:	0e 94 d6 05 	call	0xbac	; 0xbac <TransmitString>
 3fe:	80 e0       	ldi	r24, 0x00	; 0
 400:	90 e0       	ldi	r25, 0x00	; 0
 402:	a8 ec       	ldi	r26, 0xC8	; 200
 404:	b2 e4       	ldi	r27, 0x42	; 66
 406:	8e 83       	std	Y+6, r24	; 0x06
 408:	9f 83       	std	Y+7, r25	; 0x07
 40a:	a8 87       	std	Y+8, r26	; 0x08
 40c:	b9 87       	std	Y+9, r27	; 0x09

	__builtin_avr_delay_cycles(__ticks_dc);

#else
	uint16_t __ticks;
	__tmp = ((F_CPU) / 4e3) * __ms;
 40e:	20 e0       	ldi	r18, 0x00	; 0
 410:	30 e0       	ldi	r19, 0x00	; 0
 412:	4a e7       	ldi	r20, 0x7A	; 122
 414:	55 e4       	ldi	r21, 0x45	; 69
 416:	6e 81       	ldd	r22, Y+6	; 0x06
 418:	7f 81       	ldd	r23, Y+7	; 0x07
 41a:	88 85       	ldd	r24, Y+8	; 0x08
 41c:	99 85       	ldd	r25, Y+9	; 0x09
 41e:	0e 94 7b 06 	call	0xcf6	; 0xcf6 <__mulsf3>
 422:	dc 01       	movw	r26, r24
 424:	cb 01       	movw	r24, r22
 426:	8e a3       	std	Y+38, r24	; 0x26
 428:	9f a3       	std	Y+39, r25	; 0x27
 42a:	a8 a7       	std	Y+40, r26	; 0x28
 42c:	b9 a7       	std	Y+41, r27	; 0x29
	if (__tmp < 1.0)
 42e:	20 e0       	ldi	r18, 0x00	; 0
 430:	30 e0       	ldi	r19, 0x00	; 0
 432:	40 e8       	ldi	r20, 0x80	; 128
 434:	5f e3       	ldi	r21, 0x3F	; 63
 436:	6e a1       	ldd	r22, Y+38	; 0x26
 438:	7f a1       	ldd	r23, Y+39	; 0x27
 43a:	88 a5       	ldd	r24, Y+40	; 0x28
 43c:	99 a5       	ldd	r25, Y+41	; 0x29
 43e:	0e 94 f5 05 	call	0xbea	; 0xbea <__cmpsf2>
 442:	88 23       	and	r24, r24
 444:	2c f4       	brge	.+10     	; 0x450 <__LOCK_REGION_LENGTH__+0x50>
		__ticks = 1;
 446:	81 e0       	ldi	r24, 0x01	; 1
 448:	90 e0       	ldi	r25, 0x00	; 0
 44a:	9b a7       	std	Y+43, r25	; 0x2b
 44c:	8a a7       	std	Y+42, r24	; 0x2a
 44e:	3f c0       	rjmp	.+126    	; 0x4ce <__LOCK_REGION_LENGTH__+0xce>
	else if (__tmp > 65535)
 450:	20 e0       	ldi	r18, 0x00	; 0
 452:	3f ef       	ldi	r19, 0xFF	; 255
 454:	4f e7       	ldi	r20, 0x7F	; 127
 456:	57 e4       	ldi	r21, 0x47	; 71
 458:	6e a1       	ldd	r22, Y+38	; 0x26
 45a:	7f a1       	ldd	r23, Y+39	; 0x27
 45c:	88 a5       	ldd	r24, Y+40	; 0x28
 45e:	99 a5       	ldd	r25, Y+41	; 0x29
 460:	0e 94 76 06 	call	0xcec	; 0xcec <__gesf2>
 464:	18 16       	cp	r1, r24
 466:	4c f5       	brge	.+82     	; 0x4ba <__LOCK_REGION_LENGTH__+0xba>
	{
		//	__ticks = requested delay in 1/10 ms
		__ticks = (uint16_t) (__ms * 10.0);
 468:	20 e0       	ldi	r18, 0x00	; 0
 46a:	30 e0       	ldi	r19, 0x00	; 0
 46c:	40 e2       	ldi	r20, 0x20	; 32
 46e:	51 e4       	ldi	r21, 0x41	; 65
 470:	6e 81       	ldd	r22, Y+6	; 0x06
 472:	7f 81       	ldd	r23, Y+7	; 0x07
 474:	88 85       	ldd	r24, Y+8	; 0x08
 476:	99 85       	ldd	r25, Y+9	; 0x09
 478:	0e 94 7b 06 	call	0xcf6	; 0xcf6 <__mulsf3>
 47c:	dc 01       	movw	r26, r24
 47e:	cb 01       	movw	r24, r22
 480:	bc 01       	movw	r22, r24
 482:	cd 01       	movw	r24, r26
 484:	0e 94 fa 05 	call	0xbf4	; 0xbf4 <__fixunssfsi>
 488:	dc 01       	movw	r26, r24
 48a:	cb 01       	movw	r24, r22
 48c:	9b a7       	std	Y+43, r25	; 0x2b
 48e:	8a a7       	std	Y+42, r24	; 0x2a
 490:	0f c0       	rjmp	.+30     	; 0x4b0 <__LOCK_REGION_LENGTH__+0xb0>
 492:	80 e9       	ldi	r24, 0x90	; 144
 494:	91 e0       	ldi	r25, 0x01	; 1
 496:	9d a7       	std	Y+45, r25	; 0x2d
 498:	8c a7       	std	Y+44, r24	; 0x2c
 49a:	8c a5       	ldd	r24, Y+44	; 0x2c
 49c:	9d a5       	ldd	r25, Y+45	; 0x2d
 49e:	01 97       	sbiw	r24, 0x01	; 1
 4a0:	f1 f7       	brne	.-4      	; 0x49e <__LOCK_REGION_LENGTH__+0x9e>
 4a2:	9d a7       	std	Y+45, r25	; 0x2d
 4a4:	8c a7       	std	Y+44, r24	; 0x2c
		while(__ticks)
		{
			// wait 1/10 ms
			_delay_loop_2(((F_CPU) / 4e3) / 10);
			__ticks --;
 4a6:	8a a5       	ldd	r24, Y+42	; 0x2a
 4a8:	9b a5       	ldd	r25, Y+43	; 0x2b
 4aa:	01 97       	sbiw	r24, 0x01	; 1
 4ac:	9b a7       	std	Y+43, r25	; 0x2b
 4ae:	8a a7       	std	Y+42, r24	; 0x2a
		__ticks = 1;
	else if (__tmp > 65535)
	{
		//	__ticks = requested delay in 1/10 ms
		__ticks = (uint16_t) (__ms * 10.0);
		while(__ticks)
 4b0:	8a a5       	ldd	r24, Y+42	; 0x2a
 4b2:	9b a5       	ldd	r25, Y+43	; 0x2b
 4b4:	89 2b       	or	r24, r25
 4b6:	69 f7       	brne	.-38     	; 0x492 <__LOCK_REGION_LENGTH__+0x92>
 4b8:	14 c0       	rjmp	.+40     	; 0x4e2 <__LOCK_REGION_LENGTH__+0xe2>
			__ticks --;
		}
		return;
	}
	else
		__ticks = (uint16_t)__tmp;
 4ba:	6e a1       	ldd	r22, Y+38	; 0x26
 4bc:	7f a1       	ldd	r23, Y+39	; 0x27
 4be:	88 a5       	ldd	r24, Y+40	; 0x28
 4c0:	99 a5       	ldd	r25, Y+41	; 0x29
 4c2:	0e 94 fa 05 	call	0xbf4	; 0xbf4 <__fixunssfsi>
 4c6:	dc 01       	movw	r26, r24
 4c8:	cb 01       	movw	r24, r22
 4ca:	9b a7       	std	Y+43, r25	; 0x2b
 4cc:	8a a7       	std	Y+42, r24	; 0x2a
 4ce:	8a a5       	ldd	r24, Y+42	; 0x2a
 4d0:	9b a5       	ldd	r25, Y+43	; 0x2b
 4d2:	9f a7       	std	Y+47, r25	; 0x2f
 4d4:	8e a7       	std	Y+46, r24	; 0x2e
 4d6:	8e a5       	ldd	r24, Y+46	; 0x2e
 4d8:	9f a5       	ldd	r25, Y+47	; 0x2f
 4da:	01 97       	sbiw	r24, 0x01	; 1
 4dc:	f1 f7       	brne	.-4      	; 0x4da <__LOCK_REGION_LENGTH__+0xda>
 4de:	9f a7       	std	Y+47, r25	; 0x2f
 4e0:	8e a7       	std	Y+46, r24	; 0x2e
				_delay_ms(100);
				TransmitString("Press the switch to reset the game\r\n");
 4e2:	85 e2       	ldi	r24, 0x25	; 37
 4e4:	91 e0       	ldi	r25, 0x01	; 1
 4e6:	0e 94 d6 05 	call	0xbac	; 0xbac <TransmitString>
 4ea:	80 e0       	ldi	r24, 0x00	; 0
 4ec:	90 e0       	ldi	r25, 0x00	; 0
 4ee:	a8 ec       	ldi	r26, 0xC8	; 200
 4f0:	b2 e4       	ldi	r27, 0x42	; 66
 4f2:	8a 87       	std	Y+10, r24	; 0x0a
 4f4:	9b 87       	std	Y+11, r25	; 0x0b
 4f6:	ac 87       	std	Y+12, r26	; 0x0c
 4f8:	bd 87       	std	Y+13, r27	; 0x0d

	__builtin_avr_delay_cycles(__ticks_dc);

#else
	uint16_t __ticks;
	__tmp = ((F_CPU) / 4e3) * __ms;
 4fa:	20 e0       	ldi	r18, 0x00	; 0
 4fc:	30 e0       	ldi	r19, 0x00	; 0
 4fe:	4a e7       	ldi	r20, 0x7A	; 122
 500:	55 e4       	ldi	r21, 0x45	; 69
 502:	6a 85       	ldd	r22, Y+10	; 0x0a
 504:	7b 85       	ldd	r23, Y+11	; 0x0b
 506:	8c 85       	ldd	r24, Y+12	; 0x0c
 508:	9d 85       	ldd	r25, Y+13	; 0x0d
 50a:	0e 94 7b 06 	call	0xcf6	; 0xcf6 <__mulsf3>
 50e:	dc 01       	movw	r26, r24
 510:	cb 01       	movw	r24, r22
 512:	8c 8f       	std	Y+28, r24	; 0x1c
 514:	9d 8f       	std	Y+29, r25	; 0x1d
 516:	ae 8f       	std	Y+30, r26	; 0x1e
 518:	bf 8f       	std	Y+31, r27	; 0x1f
	if (__tmp < 1.0)
 51a:	20 e0       	ldi	r18, 0x00	; 0
 51c:	30 e0       	ldi	r19, 0x00	; 0
 51e:	40 e8       	ldi	r20, 0x80	; 128
 520:	5f e3       	ldi	r21, 0x3F	; 63
 522:	6c 8d       	ldd	r22, Y+28	; 0x1c
 524:	7d 8d       	ldd	r23, Y+29	; 0x1d
 526:	8e 8d       	ldd	r24, Y+30	; 0x1e
 528:	9f 8d       	ldd	r25, Y+31	; 0x1f
 52a:	0e 94 f5 05 	call	0xbea	; 0xbea <__cmpsf2>
 52e:	88 23       	and	r24, r24
 530:	2c f4       	brge	.+10     	; 0x53c <__LOCK_REGION_LENGTH__+0x13c>
		__ticks = 1;
 532:	81 e0       	ldi	r24, 0x01	; 1
 534:	90 e0       	ldi	r25, 0x00	; 0
 536:	99 a3       	std	Y+33, r25	; 0x21
 538:	88 a3       	std	Y+32, r24	; 0x20
 53a:	3f c0       	rjmp	.+126    	; 0x5ba <__LOCK_REGION_LENGTH__+0x1ba>
	else if (__tmp > 65535)
 53c:	20 e0       	ldi	r18, 0x00	; 0
 53e:	3f ef       	ldi	r19, 0xFF	; 255
 540:	4f e7       	ldi	r20, 0x7F	; 127
 542:	57 e4       	ldi	r21, 0x47	; 71
 544:	6c 8d       	ldd	r22, Y+28	; 0x1c
 546:	7d 8d       	ldd	r23, Y+29	; 0x1d
 548:	8e 8d       	ldd	r24, Y+30	; 0x1e
 54a:	9f 8d       	ldd	r25, Y+31	; 0x1f
 54c:	0e 94 76 06 	call	0xcec	; 0xcec <__gesf2>
 550:	18 16       	cp	r1, r24
 552:	4c f5       	brge	.+82     	; 0x5a6 <__LOCK_REGION_LENGTH__+0x1a6>
	{
		//	__ticks = requested delay in 1/10 ms
		__ticks = (uint16_t) (__ms * 10.0);
 554:	20 e0       	ldi	r18, 0x00	; 0
 556:	30 e0       	ldi	r19, 0x00	; 0
 558:	40 e2       	ldi	r20, 0x20	; 32
 55a:	51 e4       	ldi	r21, 0x41	; 65
 55c:	6a 85       	ldd	r22, Y+10	; 0x0a
 55e:	7b 85       	ldd	r23, Y+11	; 0x0b
 560:	8c 85       	ldd	r24, Y+12	; 0x0c
 562:	9d 85       	ldd	r25, Y+13	; 0x0d
 564:	0e 94 7b 06 	call	0xcf6	; 0xcf6 <__mulsf3>
 568:	dc 01       	movw	r26, r24
 56a:	cb 01       	movw	r24, r22
 56c:	bc 01       	movw	r22, r24
 56e:	cd 01       	movw	r24, r26
 570:	0e 94 fa 05 	call	0xbf4	; 0xbf4 <__fixunssfsi>
 574:	dc 01       	movw	r26, r24
 576:	cb 01       	movw	r24, r22
 578:	99 a3       	std	Y+33, r25	; 0x21
 57a:	88 a3       	std	Y+32, r24	; 0x20
 57c:	0f c0       	rjmp	.+30     	; 0x59c <__LOCK_REGION_LENGTH__+0x19c>
 57e:	80 e9       	ldi	r24, 0x90	; 144
 580:	91 e0       	ldi	r25, 0x01	; 1
 582:	9b a3       	std	Y+35, r25	; 0x23
 584:	8a a3       	std	Y+34, r24	; 0x22
 586:	8a a1       	ldd	r24, Y+34	; 0x22
 588:	9b a1       	ldd	r25, Y+35	; 0x23
 58a:	01 97       	sbiw	r24, 0x01	; 1
 58c:	f1 f7       	brne	.-4      	; 0x58a <__LOCK_REGION_LENGTH__+0x18a>
 58e:	9b a3       	std	Y+35, r25	; 0x23
 590:	8a a3       	std	Y+34, r24	; 0x22
		while(__ticks)
		{
			// wait 1/10 ms
			_delay_loop_2(((F_CPU) / 4e3) / 10);
			__ticks --;
 592:	88 a1       	ldd	r24, Y+32	; 0x20
 594:	99 a1       	ldd	r25, Y+33	; 0x21
 596:	01 97       	sbiw	r24, 0x01	; 1
 598:	99 a3       	std	Y+33, r25	; 0x21
 59a:	88 a3       	std	Y+32, r24	; 0x20
		__ticks = 1;
	else if (__tmp > 65535)
	{
		//	__ticks = requested delay in 1/10 ms
		__ticks = (uint16_t) (__ms * 10.0);
		while(__ticks)
 59c:	88 a1       	ldd	r24, Y+32	; 0x20
 59e:	99 a1       	ldd	r25, Y+33	; 0x21
 5a0:	89 2b       	or	r24, r25
 5a2:	69 f7       	brne	.-38     	; 0x57e <__LOCK_REGION_LENGTH__+0x17e>
 5a4:	14 c0       	rjmp	.+40     	; 0x5ce <__LOCK_REGION_LENGTH__+0x1ce>
			__ticks --;
		}
		return;
	}
	else
		__ticks = (uint16_t)__tmp;
 5a6:	6c 8d       	ldd	r22, Y+28	; 0x1c
 5a8:	7d 8d       	ldd	r23, Y+29	; 0x1d
 5aa:	8e 8d       	ldd	r24, Y+30	; 0x1e
 5ac:	9f 8d       	ldd	r25, Y+31	; 0x1f
 5ae:	0e 94 fa 05 	call	0xbf4	; 0xbf4 <__fixunssfsi>
 5b2:	dc 01       	movw	r26, r24
 5b4:	cb 01       	movw	r24, r22
 5b6:	99 a3       	std	Y+33, r25	; 0x21
 5b8:	88 a3       	std	Y+32, r24	; 0x20
 5ba:	88 a1       	ldd	r24, Y+32	; 0x20
 5bc:	99 a1       	ldd	r25, Y+33	; 0x21
 5be:	9d a3       	std	Y+37, r25	; 0x25
 5c0:	8c a3       	std	Y+36, r24	; 0x24
 5c2:	8c a1       	ldd	r24, Y+36	; 0x24
 5c4:	9d a1       	ldd	r25, Y+37	; 0x25
 5c6:	01 97       	sbiw	r24, 0x01	; 1
 5c8:	f1 f7       	brne	.-4      	; 0x5c6 <__LOCK_REGION_LENGTH__+0x1c6>
 5ca:	9d a3       	std	Y+37, r25	; 0x25
 5cc:	8c a3       	std	Y+36, r24	; 0x24
				_delay_ms(100);
				TransmitString("Or press enter to refresh\r\n");
 5ce:	8a e4       	ldi	r24, 0x4A	; 74
 5d0:	91 e0       	ldi	r25, 0x01	; 1
 5d2:	0e 94 d6 05 	call	0xbac	; 0xbac <TransmitString>
 5d6:	80 e0       	ldi	r24, 0x00	; 0
 5d8:	90 e0       	ldi	r25, 0x00	; 0
 5da:	a8 ec       	ldi	r26, 0xC8	; 200
 5dc:	b2 e4       	ldi	r27, 0x42	; 66
 5de:	8e 87       	std	Y+14, r24	; 0x0e
 5e0:	9f 87       	std	Y+15, r25	; 0x0f
 5e2:	a8 8b       	std	Y+16, r26	; 0x10
 5e4:	b9 8b       	std	Y+17, r27	; 0x11

	__builtin_avr_delay_cycles(__ticks_dc);

#else
	uint16_t __ticks;
	__tmp = ((F_CPU) / 4e3) * __ms;
 5e6:	20 e0       	ldi	r18, 0x00	; 0
 5e8:	30 e0       	ldi	r19, 0x00	; 0
 5ea:	4a e7       	ldi	r20, 0x7A	; 122
 5ec:	55 e4       	ldi	r21, 0x45	; 69
 5ee:	6e 85       	ldd	r22, Y+14	; 0x0e
 5f0:	7f 85       	ldd	r23, Y+15	; 0x0f
 5f2:	88 89       	ldd	r24, Y+16	; 0x10
 5f4:	99 89       	ldd	r25, Y+17	; 0x11
 5f6:	0e 94 7b 06 	call	0xcf6	; 0xcf6 <__mulsf3>
 5fa:	dc 01       	movw	r26, r24
 5fc:	cb 01       	movw	r24, r22
 5fe:	8a 8b       	std	Y+18, r24	; 0x12
 600:	9b 8b       	std	Y+19, r25	; 0x13
 602:	ac 8b       	std	Y+20, r26	; 0x14
 604:	bd 8b       	std	Y+21, r27	; 0x15
	if (__tmp < 1.0)
 606:	20 e0       	ldi	r18, 0x00	; 0
 608:	30 e0       	ldi	r19, 0x00	; 0
 60a:	40 e8       	ldi	r20, 0x80	; 128
 60c:	5f e3       	ldi	r21, 0x3F	; 63
 60e:	6a 89       	ldd	r22, Y+18	; 0x12
 610:	7b 89       	ldd	r23, Y+19	; 0x13
 612:	8c 89       	ldd	r24, Y+20	; 0x14
 614:	9d 89       	ldd	r25, Y+21	; 0x15
 616:	0e 94 f5 05 	call	0xbea	; 0xbea <__cmpsf2>
 61a:	88 23       	and	r24, r24
 61c:	2c f4       	brge	.+10     	; 0x628 <__LOCK_REGION_LENGTH__+0x228>
		__ticks = 1;
 61e:	81 e0       	ldi	r24, 0x01	; 1
 620:	90 e0       	ldi	r25, 0x00	; 0
 622:	9f 8b       	std	Y+23, r25	; 0x17
 624:	8e 8b       	std	Y+22, r24	; 0x16
 626:	3f c0       	rjmp	.+126    	; 0x6a6 <__LOCK_REGION_LENGTH__+0x2a6>
	else if (__tmp > 65535)
 628:	20 e0       	ldi	r18, 0x00	; 0
 62a:	3f ef       	ldi	r19, 0xFF	; 255
 62c:	4f e7       	ldi	r20, 0x7F	; 127
 62e:	57 e4       	ldi	r21, 0x47	; 71
 630:	6a 89       	ldd	r22, Y+18	; 0x12
 632:	7b 89       	ldd	r23, Y+19	; 0x13
 634:	8c 89       	ldd	r24, Y+20	; 0x14
 636:	9d 89       	ldd	r25, Y+21	; 0x15
 638:	0e 94 76 06 	call	0xcec	; 0xcec <__gesf2>
 63c:	18 16       	cp	r1, r24
 63e:	4c f5       	brge	.+82     	; 0x692 <__LOCK_REGION_LENGTH__+0x292>
	{
		//	__ticks = requested delay in 1/10 ms
		__ticks = (uint16_t) (__ms * 10.0);
 640:	20 e0       	ldi	r18, 0x00	; 0
 642:	30 e0       	ldi	r19, 0x00	; 0
 644:	40 e2       	ldi	r20, 0x20	; 32
 646:	51 e4       	ldi	r21, 0x41	; 65
 648:	6e 85       	ldd	r22, Y+14	; 0x0e
 64a:	7f 85       	ldd	r23, Y+15	; 0x0f
 64c:	88 89       	ldd	r24, Y+16	; 0x10
 64e:	99 89       	ldd	r25, Y+17	; 0x11
 650:	0e 94 7b 06 	call	0xcf6	; 0xcf6 <__mulsf3>
 654:	dc 01       	movw	r26, r24
 656:	cb 01       	movw	r24, r22
 658:	bc 01       	movw	r22, r24
 65a:	cd 01       	movw	r24, r26
 65c:	0e 94 fa 05 	call	0xbf4	; 0xbf4 <__fixunssfsi>
 660:	dc 01       	movw	r26, r24
 662:	cb 01       	movw	r24, r22
 664:	9f 8b       	std	Y+23, r25	; 0x17
 666:	8e 8b       	std	Y+22, r24	; 0x16
 668:	0f c0       	rjmp	.+30     	; 0x688 <__LOCK_REGION_LENGTH__+0x288>
 66a:	80 e9       	ldi	r24, 0x90	; 144
 66c:	91 e0       	ldi	r25, 0x01	; 1
 66e:	99 8f       	std	Y+25, r25	; 0x19
 670:	88 8f       	std	Y+24, r24	; 0x18
 672:	88 8d       	ldd	r24, Y+24	; 0x18
 674:	99 8d       	ldd	r25, Y+25	; 0x19
 676:	01 97       	sbiw	r24, 0x01	; 1
 678:	f1 f7       	brne	.-4      	; 0x676 <__LOCK_REGION_LENGTH__+0x276>
 67a:	99 8f       	std	Y+25, r25	; 0x19
 67c:	88 8f       	std	Y+24, r24	; 0x18
		while(__ticks)
		{
			// wait 1/10 ms
			_delay_loop_2(((F_CPU) / 4e3) / 10);
			__ticks --;
 67e:	8e 89       	ldd	r24, Y+22	; 0x16
 680:	9f 89       	ldd	r25, Y+23	; 0x17
 682:	01 97       	sbiw	r24, 0x01	; 1
 684:	9f 8b       	std	Y+23, r25	; 0x17
 686:	8e 8b       	std	Y+22, r24	; 0x16
		__ticks = 1;
	else if (__tmp > 65535)
	{
		//	__ticks = requested delay in 1/10 ms
		__ticks = (uint16_t) (__ms * 10.0);
		while(__ticks)
 688:	8e 89       	ldd	r24, Y+22	; 0x16
 68a:	9f 89       	ldd	r25, Y+23	; 0x17
 68c:	89 2b       	or	r24, r25
 68e:	69 f7       	brne	.-38     	; 0x66a <__LOCK_REGION_LENGTH__+0x26a>
 690:	14 c0       	rjmp	.+40     	; 0x6ba <__LOCK_REGION_LENGTH__+0x2ba>
			__ticks --;
		}
		return;
	}
	else
		__ticks = (uint16_t)__tmp;
 692:	6a 89       	ldd	r22, Y+18	; 0x12
 694:	7b 89       	ldd	r23, Y+19	; 0x13
 696:	8c 89       	ldd	r24, Y+20	; 0x14
 698:	9d 89       	ldd	r25, Y+21	; 0x15
 69a:	0e 94 fa 05 	call	0xbf4	; 0xbf4 <__fixunssfsi>
 69e:	dc 01       	movw	r26, r24
 6a0:	cb 01       	movw	r24, r22
 6a2:	9f 8b       	std	Y+23, r25	; 0x17
 6a4:	8e 8b       	std	Y+22, r24	; 0x16
 6a6:	8e 89       	ldd	r24, Y+22	; 0x16
 6a8:	9f 89       	ldd	r25, Y+23	; 0x17
 6aa:	9b 8f       	std	Y+27, r25	; 0x1b
 6ac:	8a 8f       	std	Y+26, r24	; 0x1a
 6ae:	8a 8d       	ldd	r24, Y+26	; 0x1a
 6b0:	9b 8d       	ldd	r25, Y+27	; 0x1b
 6b2:	01 97       	sbiw	r24, 0x01	; 1
 6b4:	f1 f7       	brne	.-4      	; 0x6b2 <__LOCK_REGION_LENGTH__+0x2b2>
 6b6:	9b 8f       	std	Y+27, r25	; 0x1b
 6b8:	8a 8f       	std	Y+26, r24	; 0x1a
				_delay_ms(100);
				
				while(wait);
 6ba:	00 00       	nop
 6bc:	80 91 8a 01 	lds	r24, 0x018A	; 0x80018a <wait>
 6c0:	88 23       	and	r24, r24
 6c2:	e1 f7       	brne	.-8      	; 0x6bc <__LOCK_REGION_LENGTH__+0x2bc>
				
				generateCode();
 6c4:	0e 94 80 03 	call	0x700	; 0x700 <generateCode>
 6c8:	e3 cd       	rjmp	.-1082   	; 0x290 <main+0x108>
			} else
			{
				TransmitString("Enter your code\r\n");
 6ca:	86 e6       	ldi	r24, 0x66	; 102
 6cc:	91 e0       	ldi	r25, 0x01	; 1
 6ce:	0e 94 d6 05 	call	0xbac	; 0xbac <TransmitString>
				attempt--;
 6d2:	80 91 04 01 	lds	r24, 0x0104	; 0x800104 <attempt>
 6d6:	90 91 05 01 	lds	r25, 0x0105	; 0x800105 <attempt+0x1>
 6da:	01 97       	sbiw	r24, 0x01	; 1
 6dc:	90 93 05 01 	sts	0x0105, r25	; 0x800105 <attempt+0x1>
 6e0:	80 93 04 01 	sts	0x0104, r24	; 0x800104 <attempt>
				
				ReceiveString(user_code);
 6e4:	8f ec       	ldi	r24, 0xCF	; 207
 6e6:	91 e0       	ldi	r25, 0x01	; 1
 6e8:	0e 94 98 05 	call	0xb30	; 0xb30 <ReceiveString>
 6ec:	d1 cd       	rjmp	.-1118   	; 0x290 <main+0x108>
				
			}	
		} else
		{
			TransmitString("You have lost\r\n");
 6ee:	88 e7       	ldi	r24, 0x78	; 120
 6f0:	91 e0       	ldi	r25, 0x01	; 1
 6f2:	0e 94 d6 05 	call	0xbac	; 0xbac <TransmitString>
			TransmitString("Press the switch to reset the game\r\n");
 6f6:	85 e2       	ldi	r24, 0x25	; 37
 6f8:	91 e0       	ldi	r25, 0x01	; 1
 6fa:	0e 94 d6 05 	call	0xbac	; 0xbac <TransmitString>
		
		//mm_result = check_secret_code(user_code);
		
		//_delay_ms(100);
		
    }
 6fe:	c8 cd       	rjmp	.-1136   	; 0x290 <main+0x108>

00000700 <generateCode>:
}
void generateCode(void)
{
 700:	cf 93       	push	r28
 702:	df 93       	push	r29
 704:	cd b7       	in	r28, 0x3d	; 61
 706:	de b7       	in	r29, 0x3e	; 62
	secret_code[0] = '1' + rand()%7;
 708:	0e 94 84 07 	call	0xf08	; 0xf08 <rand>
 70c:	27 e0       	ldi	r18, 0x07	; 7
 70e:	30 e0       	ldi	r19, 0x00	; 0
 710:	b9 01       	movw	r22, r18
 712:	0e 94 10 07 	call	0xe20	; 0xe20 <__divmodhi4>
 716:	8f 5c       	subi	r24, 0xCF	; 207
 718:	80 93 06 01 	sts	0x0106, r24	; 0x800106 <secret_code>
	secret_code[1] = '1' + rand()%7;
 71c:	0e 94 84 07 	call	0xf08	; 0xf08 <rand>
 720:	27 e0       	ldi	r18, 0x07	; 7
 722:	30 e0       	ldi	r19, 0x00	; 0
 724:	b9 01       	movw	r22, r18
 726:	0e 94 10 07 	call	0xe20	; 0xe20 <__divmodhi4>
 72a:	8f 5c       	subi	r24, 0xCF	; 207
 72c:	80 93 07 01 	sts	0x0107, r24	; 0x800107 <secret_code+0x1>
	secret_code[2] = '1' + rand()%7;
 730:	0e 94 84 07 	call	0xf08	; 0xf08 <rand>
 734:	27 e0       	ldi	r18, 0x07	; 7
 736:	30 e0       	ldi	r19, 0x00	; 0
 738:	b9 01       	movw	r22, r18
 73a:	0e 94 10 07 	call	0xe20	; 0xe20 <__divmodhi4>
 73e:	8f 5c       	subi	r24, 0xCF	; 207
 740:	80 93 08 01 	sts	0x0108, r24	; 0x800108 <secret_code+0x2>
	secret_code[3] = '1' + rand()%7;
 744:	0e 94 84 07 	call	0xf08	; 0xf08 <rand>
 748:	27 e0       	ldi	r18, 0x07	; 7
 74a:	30 e0       	ldi	r19, 0x00	; 0
 74c:	b9 01       	movw	r22, r18
 74e:	0e 94 10 07 	call	0xe20	; 0xe20 <__divmodhi4>
 752:	8f 5c       	subi	r24, 0xCF	; 207
 754:	80 93 09 01 	sts	0x0109, r24	; 0x800109 <secret_code+0x3>
	secret_code[4] = NULL;
 758:	10 92 0a 01 	sts	0x010A, r1	; 0x80010a <secret_code+0x4>
	//TransmitString(secret_code);
	//secret_code[4] = NULL;
	
	return;
 75c:	00 00       	nop
}
 75e:	df 91       	pop	r29
 760:	cf 91       	pop	r28
 762:	08 95       	ret

00000764 <set_secret_code>:
//           global variable secret_code[].
// Pre     : The size of the code[] is exactly MM_DIGITS.
// Post    : -
// ----------------------------------------------------------------------------
void set_secret_code(const unsigned char *code)
{
 764:	cf 93       	push	r28
 766:	df 93       	push	r29
 768:	00 d0       	rcall	.+0      	; 0x76a <set_secret_code+0x6>
 76a:	1f 92       	push	r1
 76c:	cd b7       	in	r28, 0x3d	; 61
 76e:	de b7       	in	r29, 0x3e	; 62
 770:	9b 83       	std	Y+3, r25	; 0x03
 772:	8a 83       	std	Y+2, r24	; 0x02
  for(uint8_t i=0; i < MM_DIGITS; i++)
 774:	19 82       	std	Y+1, r1	; 0x01
 776:	13 c0       	rjmp	.+38     	; 0x79e <set_secret_code+0x3a>
    secret_code[i] = code[i];
 778:	89 81       	ldd	r24, Y+1	; 0x01
 77a:	88 2f       	mov	r24, r24
 77c:	90 e0       	ldi	r25, 0x00	; 0
 77e:	29 81       	ldd	r18, Y+1	; 0x01
 780:	22 2f       	mov	r18, r18
 782:	30 e0       	ldi	r19, 0x00	; 0
 784:	4a 81       	ldd	r20, Y+2	; 0x02
 786:	5b 81       	ldd	r21, Y+3	; 0x03
 788:	24 0f       	add	r18, r20
 78a:	35 1f       	adc	r19, r21
 78c:	f9 01       	movw	r30, r18
 78e:	20 81       	ld	r18, Z
 790:	8a 5f       	subi	r24, 0xFA	; 250
 792:	9e 4f       	sbci	r25, 0xFE	; 254
 794:	fc 01       	movw	r30, r24
 796:	20 83       	st	Z, r18
// Pre     : The size of the code[] is exactly MM_DIGITS.
// Post    : -
// ----------------------------------------------------------------------------
void set_secret_code(const unsigned char *code)
{
  for(uint8_t i=0; i < MM_DIGITS; i++)
 798:	89 81       	ldd	r24, Y+1	; 0x01
 79a:	8f 5f       	subi	r24, 0xFF	; 255
 79c:	89 83       	std	Y+1, r24	; 0x01
 79e:	89 81       	ldd	r24, Y+1	; 0x01
 7a0:	84 30       	cpi	r24, 0x04	; 4
 7a2:	50 f3       	brcs	.-44     	; 0x778 <set_secret_code+0x14>
    secret_code[i] = code[i];
}
 7a4:	00 00       	nop
 7a6:	0f 90       	pop	r0
 7a8:	0f 90       	pop	r0
 7aa:	0f 90       	pop	r0
 7ac:	df 91       	pop	r29
 7ae:	cf 91       	pop	r28
 7b0:	08 95       	ret

000007b2 <check_secret_code>:
// Pre     : None of the digits in user_code and secret code is equal to
//           MM_MARK_DONE.
// Post    : -
// ----------------------------------------------------------------------------
mm_result_t check_secret_code(const unsigned char *user_code)
{
 7b2:	cf 93       	push	r28
 7b4:	df 93       	push	r29
 7b6:	cd b7       	in	r28, 0x3d	; 61
 7b8:	de b7       	in	r29, 0x3e	; 62
 7ba:	60 97       	sbiw	r28, 0x10	; 16
 7bc:	0f b6       	in	r0, 0x3f	; 63
 7be:	f8 94       	cli
 7c0:	de bf       	out	0x3e, r29	; 62
 7c2:	0f be       	out	0x3f, r0	; 63
 7c4:	cd bf       	out	0x3d, r28	; 61
 7c6:	98 8b       	std	Y+16, r25	; 0x10
 7c8:	8f 87       	std	Y+15, r24	; 0x0f
  mm_result_t result;

  // Clear the result
  result.correct_num_and_pos = 0;
 7ca:	1d 82       	std	Y+5, r1	; 0x05
  result.correct_num = 0;
 7cc:	1e 82       	std	Y+6, r1	; 0x06

  // Copy the codes
  unsigned char secret_code_tmp[MM_DIGITS];
  unsigned char user_code_tmp[MM_DIGITS];
  for(uint8_t i=0; i < MM_DIGITS; i++)
 7ce:	19 82       	std	Y+1, r1	; 0x01
 7d0:	27 c0       	rjmp	.+78     	; 0x820 <check_secret_code+0x6e>
  {
    secret_code_tmp[i] = secret_code[i];
 7d2:	89 81       	ldd	r24, Y+1	; 0x01
 7d4:	88 2f       	mov	r24, r24
 7d6:	90 e0       	ldi	r25, 0x00	; 0
 7d8:	29 81       	ldd	r18, Y+1	; 0x01
 7da:	22 2f       	mov	r18, r18
 7dc:	30 e0       	ldi	r19, 0x00	; 0
 7de:	2a 5f       	subi	r18, 0xFA	; 250
 7e0:	3e 4f       	sbci	r19, 0xFE	; 254
 7e2:	f9 01       	movw	r30, r18
 7e4:	40 81       	ld	r20, Z
 7e6:	9e 01       	movw	r18, r28
 7e8:	29 5f       	subi	r18, 0xF9	; 249
 7ea:	3f 4f       	sbci	r19, 0xFF	; 255
 7ec:	82 0f       	add	r24, r18
 7ee:	93 1f       	adc	r25, r19
 7f0:	fc 01       	movw	r30, r24
 7f2:	40 83       	st	Z, r20
    user_code_tmp[i]   = user_code[i];
 7f4:	89 81       	ldd	r24, Y+1	; 0x01
 7f6:	88 2f       	mov	r24, r24
 7f8:	90 e0       	ldi	r25, 0x00	; 0
 7fa:	29 81       	ldd	r18, Y+1	; 0x01
 7fc:	22 2f       	mov	r18, r18
 7fe:	30 e0       	ldi	r19, 0x00	; 0
 800:	4f 85       	ldd	r20, Y+15	; 0x0f
 802:	58 89       	ldd	r21, Y+16	; 0x10
 804:	24 0f       	add	r18, r20
 806:	35 1f       	adc	r19, r21
 808:	f9 01       	movw	r30, r18
 80a:	40 81       	ld	r20, Z
 80c:	9e 01       	movw	r18, r28
 80e:	25 5f       	subi	r18, 0xF5	; 245
 810:	3f 4f       	sbci	r19, 0xFF	; 255
 812:	82 0f       	add	r24, r18
 814:	93 1f       	adc	r25, r19
 816:	fc 01       	movw	r30, r24
 818:	40 83       	st	Z, r20
  result.correct_num = 0;

  // Copy the codes
  unsigned char secret_code_tmp[MM_DIGITS];
  unsigned char user_code_tmp[MM_DIGITS];
  for(uint8_t i=0; i < MM_DIGITS; i++)
 81a:	89 81       	ldd	r24, Y+1	; 0x01
 81c:	8f 5f       	subi	r24, 0xFF	; 255
 81e:	89 83       	std	Y+1, r24	; 0x01
 820:	89 81       	ldd	r24, Y+1	; 0x01
 822:	84 30       	cpi	r24, 0x04	; 4
 824:	b0 f2       	brcs	.-84     	; 0x7d2 <check_secret_code+0x20>
    user_code_tmp[i]   = user_code[i];
  }

  // Iteration 1
  // Check the digits that have the same value and the same position
  for(uint8_t i=0; i < MM_DIGITS; i++)
 826:	1a 82       	std	Y+2, r1	; 0x02
 828:	31 c0       	rjmp	.+98     	; 0x88c <check_secret_code+0xda>
  {
    if(user_code[i] == secret_code_tmp[i])
 82a:	8a 81       	ldd	r24, Y+2	; 0x02
 82c:	88 2f       	mov	r24, r24
 82e:	90 e0       	ldi	r25, 0x00	; 0
 830:	2f 85       	ldd	r18, Y+15	; 0x0f
 832:	38 89       	ldd	r19, Y+16	; 0x10
 834:	82 0f       	add	r24, r18
 836:	93 1f       	adc	r25, r19
 838:	fc 01       	movw	r30, r24
 83a:	40 81       	ld	r20, Z
 83c:	8a 81       	ldd	r24, Y+2	; 0x02
 83e:	88 2f       	mov	r24, r24
 840:	90 e0       	ldi	r25, 0x00	; 0
 842:	9e 01       	movw	r18, r28
 844:	29 5f       	subi	r18, 0xF9	; 249
 846:	3f 4f       	sbci	r19, 0xFF	; 255
 848:	82 0f       	add	r24, r18
 84a:	93 1f       	adc	r25, r19
 84c:	fc 01       	movw	r30, r24
 84e:	80 81       	ld	r24, Z
 850:	48 17       	cp	r20, r24
 852:	c9 f4       	brne	.+50     	; 0x886 <check_secret_code+0xd4>
    {
      // Mark the digits that have been done
      secret_code_tmp[i] = MM_MARK_DONE;
 854:	8a 81       	ldd	r24, Y+2	; 0x02
 856:	88 2f       	mov	r24, r24
 858:	90 e0       	ldi	r25, 0x00	; 0
 85a:	9e 01       	movw	r18, r28
 85c:	29 5f       	subi	r18, 0xF9	; 249
 85e:	3f 4f       	sbci	r19, 0xFF	; 255
 860:	82 0f       	add	r24, r18
 862:	93 1f       	adc	r25, r19
 864:	2f ef       	ldi	r18, 0xFF	; 255
 866:	fc 01       	movw	r30, r24
 868:	20 83       	st	Z, r18
      user_code_tmp[i] = MM_MARK_DONE;
 86a:	8a 81       	ldd	r24, Y+2	; 0x02
 86c:	88 2f       	mov	r24, r24
 86e:	90 e0       	ldi	r25, 0x00	; 0
 870:	9e 01       	movw	r18, r28
 872:	25 5f       	subi	r18, 0xF5	; 245
 874:	3f 4f       	sbci	r19, 0xFF	; 255
 876:	82 0f       	add	r24, r18
 878:	93 1f       	adc	r25, r19
 87a:	2f ef       	ldi	r18, 0xFF	; 255
 87c:	fc 01       	movw	r30, r24
 87e:	20 83       	st	Z, r18

      result.correct_num_and_pos++;
 880:	8d 81       	ldd	r24, Y+5	; 0x05
 882:	8f 5f       	subi	r24, 0xFF	; 255
 884:	8d 83       	std	Y+5, r24	; 0x05
    user_code_tmp[i]   = user_code[i];
  }

  // Iteration 1
  // Check the digits that have the same value and the same position
  for(uint8_t i=0; i < MM_DIGITS; i++)
 886:	8a 81       	ldd	r24, Y+2	; 0x02
 888:	8f 5f       	subi	r24, 0xFF	; 255
 88a:	8a 83       	std	Y+2, r24	; 0x02
 88c:	8a 81       	ldd	r24, Y+2	; 0x02
 88e:	84 30       	cpi	r24, 0x04	; 4
 890:	60 f2       	brcs	.-104    	; 0x82a <check_secret_code+0x78>
  }

  // Iteration 2
  // Check the digits that have the same value, but a different position
  // Loop all user digits (u)
  for(uint8_t u=0; u < MM_DIGITS; u++)
 892:	1b 82       	std	Y+3, r1	; 0x03
 894:	4b c0       	rjmp	.+150    	; 0x92c <__stack+0x2d>
  {
    // Has this user digit not been counted in iteration 1?
    if(user_code_tmp[u] != MM_MARK_DONE)
 896:	8b 81       	ldd	r24, Y+3	; 0x03
 898:	88 2f       	mov	r24, r24
 89a:	90 e0       	ldi	r25, 0x00	; 0
 89c:	9e 01       	movw	r18, r28
 89e:	25 5f       	subi	r18, 0xF5	; 245
 8a0:	3f 4f       	sbci	r19, 0xFF	; 255
 8a2:	82 0f       	add	r24, r18
 8a4:	93 1f       	adc	r25, r19
 8a6:	fc 01       	movw	r30, r24
 8a8:	80 81       	ld	r24, Z
 8aa:	8f 3f       	cpi	r24, 0xFF	; 255
 8ac:	e1 f1       	breq	.+120    	; 0x926 <__stack+0x27>
    {
      // Loop all secret digits (s)
      for(uint8_t s=0; s < MM_DIGITS; s++)
 8ae:	1c 82       	std	Y+4, r1	; 0x04
 8b0:	37 c0       	rjmp	.+110    	; 0x920 <__stack+0x21>
      {
        // Has this secret digit not been counted in iteration 1?
        if(secret_code_tmp[s] != MM_MARK_DONE)
 8b2:	8c 81       	ldd	r24, Y+4	; 0x04
 8b4:	88 2f       	mov	r24, r24
 8b6:	90 e0       	ldi	r25, 0x00	; 0
 8b8:	9e 01       	movw	r18, r28
 8ba:	29 5f       	subi	r18, 0xF9	; 249
 8bc:	3f 4f       	sbci	r19, 0xFF	; 255
 8be:	82 0f       	add	r24, r18
 8c0:	93 1f       	adc	r25, r19
 8c2:	fc 01       	movw	r30, r24
 8c4:	80 81       	ld	r24, Z
 8c6:	8f 3f       	cpi	r24, 0xFF	; 255
 8c8:	41 f1       	breq	.+80     	; 0x91a <__stack+0x1b>
        {
          // Are the digits equal and the positions different?
          if((secret_code_tmp[s] == user_code[u]) && (s != u))
 8ca:	8c 81       	ldd	r24, Y+4	; 0x04
 8cc:	88 2f       	mov	r24, r24
 8ce:	90 e0       	ldi	r25, 0x00	; 0
 8d0:	9e 01       	movw	r18, r28
 8d2:	29 5f       	subi	r18, 0xF9	; 249
 8d4:	3f 4f       	sbci	r19, 0xFF	; 255
 8d6:	82 0f       	add	r24, r18
 8d8:	93 1f       	adc	r25, r19
 8da:	fc 01       	movw	r30, r24
 8dc:	40 81       	ld	r20, Z
 8de:	8b 81       	ldd	r24, Y+3	; 0x03
 8e0:	88 2f       	mov	r24, r24
 8e2:	90 e0       	ldi	r25, 0x00	; 0
 8e4:	2f 85       	ldd	r18, Y+15	; 0x0f
 8e6:	38 89       	ldd	r19, Y+16	; 0x10
 8e8:	82 0f       	add	r24, r18
 8ea:	93 1f       	adc	r25, r19
 8ec:	fc 01       	movw	r30, r24
 8ee:	80 81       	ld	r24, Z
 8f0:	48 17       	cp	r20, r24
 8f2:	99 f4       	brne	.+38     	; 0x91a <__stack+0x1b>
 8f4:	9c 81       	ldd	r25, Y+4	; 0x04
 8f6:	8b 81       	ldd	r24, Y+3	; 0x03
 8f8:	98 17       	cp	r25, r24
 8fa:	79 f0       	breq	.+30     	; 0x91a <__stack+0x1b>
          {
            // Mark the secret digit so it will never be equal to a user digit again
            secret_code_tmp[s] = MM_MARK_DONE;
 8fc:	8c 81       	ldd	r24, Y+4	; 0x04
 8fe:	88 2f       	mov	r24, r24
 900:	90 e0       	ldi	r25, 0x00	; 0
 902:	9e 01       	movw	r18, r28
 904:	29 5f       	subi	r18, 0xF9	; 249
 906:	3f 4f       	sbci	r19, 0xFF	; 255
 908:	82 0f       	add	r24, r18
 90a:	93 1f       	adc	r25, r19
 90c:	2f ef       	ldi	r18, 0xFF	; 255
 90e:	fc 01       	movw	r30, r24
 910:	20 83       	st	Z, r18

            result.correct_num++;
 912:	8e 81       	ldd	r24, Y+6	; 0x06
 914:	8f 5f       	subi	r24, 0xFF	; 255
 916:	8e 83       	std	Y+6, r24	; 0x06

            // Do not check the rest of the secret digits for this user digit
            break;
 918:	06 c0       	rjmp	.+12     	; 0x926 <__stack+0x27>
  {
    // Has this user digit not been counted in iteration 1?
    if(user_code_tmp[u] != MM_MARK_DONE)
    {
      // Loop all secret digits (s)
      for(uint8_t s=0; s < MM_DIGITS; s++)
 91a:	8c 81       	ldd	r24, Y+4	; 0x04
 91c:	8f 5f       	subi	r24, 0xFF	; 255
 91e:	8c 83       	std	Y+4, r24	; 0x04
 920:	8c 81       	ldd	r24, Y+4	; 0x04
 922:	84 30       	cpi	r24, 0x04	; 4
 924:	30 f2       	brcs	.-116    	; 0x8b2 <check_secret_code+0x100>
  }

  // Iteration 2
  // Check the digits that have the same value, but a different position
  // Loop all user digits (u)
  for(uint8_t u=0; u < MM_DIGITS; u++)
 926:	8b 81       	ldd	r24, Y+3	; 0x03
 928:	8f 5f       	subi	r24, 0xFF	; 255
 92a:	8b 83       	std	Y+3, r24	; 0x03
 92c:	8b 81       	ldd	r24, Y+3	; 0x03
 92e:	84 30       	cpi	r24, 0x04	; 4
 930:	08 f4       	brcc	.+2      	; 0x934 <__stack+0x35>
 932:	b1 cf       	rjmp	.-158    	; 0x896 <check_secret_code+0xe4>
        }
      }
    }
  }

  return result;
 934:	8d 81       	ldd	r24, Y+5	; 0x05
 936:	9e 81       	ldd	r25, Y+6	; 0x06
}
 938:	60 96       	adiw	r28, 0x10	; 16
 93a:	0f b6       	in	r0, 0x3f	; 63
 93c:	f8 94       	cli
 93e:	de bf       	out	0x3e, r29	; 62
 940:	0f be       	out	0x3f, r0	; 63
 942:	cd bf       	out	0x3d, r28	; 61
 944:	df 91       	pop	r29
 946:	cf 91       	pop	r28
 948:	08 95       	ret

0000094a <InitUART>:
#include <avr/interrupt.h>


/* Initialize UART */
void InitUART(unsigned int ubrr_val)
{
 94a:	cf 93       	push	r28
 94c:	df 93       	push	r29
 94e:	00 d0       	rcall	.+0      	; 0x950 <InitUART+0x6>
 950:	1f 92       	push	r1
 952:	cd b7       	in	r28, 0x3d	; 61
 954:	de b7       	in	r29, 0x3e	; 62
 956:	9b 83       	std	Y+3, r25	; 0x03
 958:	8a 83       	std	Y+2, r24	; 0x02
	char x;
	/* Set the baud rate */
	UBRR0H = (unsigned char)(ubrr_val>>8);
 95a:	85 ec       	ldi	r24, 0xC5	; 197
 95c:	90 e0       	ldi	r25, 0x00	; 0
 95e:	2a 81       	ldd	r18, Y+2	; 0x02
 960:	3b 81       	ldd	r19, Y+3	; 0x03
 962:	23 2f       	mov	r18, r19
 964:	33 27       	eor	r19, r19
 966:	fc 01       	movw	r30, r24
 968:	20 83       	st	Z, r18
	UBRR0L = (unsigned char)ubrr_val;
 96a:	84 ec       	ldi	r24, 0xC4	; 196
 96c:	90 e0       	ldi	r25, 0x00	; 0
 96e:	2a 81       	ldd	r18, Y+2	; 0x02
 970:	fc 01       	movw	r30, r24
 972:	20 83       	st	Z, r18
	/* Enable UART receiver and transmitter */
	UCSR0B = ((1<<RXEN0) | (1<<TXEN0) | (1<<RXCIE0));
 974:	81 ec       	ldi	r24, 0xC1	; 193
 976:	90 e0       	ldi	r25, 0x00	; 0
 978:	28 e9       	ldi	r18, 0x98	; 152
 97a:	fc 01       	movw	r30, r24
 97c:	20 83       	st	Z, r18
	/* Flush receive buffer */
	x = 0;
 97e:	19 82       	std	Y+1, r1	; 0x01
	UART_RxTail = x;
 980:	89 81       	ldd	r24, Y+1	; 0x01
 982:	80 93 ac 01 	sts	0x01AC, r24	; 0x8001ac <UART_RxTail>
	UART_RxHead = x;
 986:	89 81       	ldd	r24, Y+1	; 0x01
 988:	80 93 ab 01 	sts	0x01AB, r24	; 0x8001ab <UART_RxHead>
	UART_TxTail = x;
 98c:	89 81       	ldd	r24, Y+1	; 0x01
 98e:	80 93 ce 01 	sts	0x01CE, r24	; 0x8001ce <UART_TxTail>
	UART_TxHead = x;
 992:	89 81       	ldd	r24, Y+1	; 0x01
 994:	80 93 cd 01 	sts	0x01CD, r24	; 0x8001cd <UART_TxHead>
}
 998:	00 00       	nop
 99a:	0f 90       	pop	r0
 99c:	0f 90       	pop	r0
 99e:	0f 90       	pop	r0
 9a0:	df 91       	pop	r29
 9a2:	cf 91       	pop	r28
 9a4:	08 95       	ret

000009a6 <__vector_18>:
/* Interrupt handlers */
ISR(USART_RX_vect)
{
 9a6:	1f 92       	push	r1
 9a8:	0f 92       	push	r0
 9aa:	00 90 5f 00 	lds	r0, 0x005F	; 0x80005f <__TEXT_REGION_LENGTH__+0x7e005f>
 9ae:	0f 92       	push	r0
 9b0:	11 24       	eor	r1, r1
 9b2:	2f 93       	push	r18
 9b4:	8f 93       	push	r24
 9b6:	9f 93       	push	r25
 9b8:	ef 93       	push	r30
 9ba:	ff 93       	push	r31
 9bc:	cf 93       	push	r28
 9be:	df 93       	push	r29
 9c0:	00 d0       	rcall	.+0      	; 0x9c2 <__vector_18+0x1c>
 9c2:	cd b7       	in	r28, 0x3d	; 61
 9c4:	de b7       	in	r29, 0x3e	; 62
	char data;
	unsigned char tmphead;
	/* Read the received data */
	data = UDR0;
 9c6:	86 ec       	ldi	r24, 0xC6	; 198
 9c8:	90 e0       	ldi	r25, 0x00	; 0
 9ca:	fc 01       	movw	r30, r24
 9cc:	80 81       	ld	r24, Z
 9ce:	89 83       	std	Y+1, r24	; 0x01
	/* Calculate buffer index */
	tmphead = (UART_RxHead + 1) & UART_RX_BUFFER_MASK;
 9d0:	80 91 ab 01 	lds	r24, 0x01AB	; 0x8001ab <UART_RxHead>
 9d4:	8f 5f       	subi	r24, 0xFF	; 255
 9d6:	8f 71       	andi	r24, 0x1F	; 31
 9d8:	8a 83       	std	Y+2, r24	; 0x02
	/* Store new index */
	UART_RxHead = tmphead;
 9da:	8a 81       	ldd	r24, Y+2	; 0x02
 9dc:	80 93 ab 01 	sts	0x01AB, r24	; 0x8001ab <UART_RxHead>
	if (tmphead == UART_RxTail) {
 9e0:	80 91 ac 01 	lds	r24, 0x01AC	; 0x8001ac <UART_RxTail>
		/* ERROR! Receive buffer overflow */
	}
	/* Store received data in buffer */
	UART_RxBuf[tmphead] = data;
 9e4:	8a 81       	ldd	r24, Y+2	; 0x02
 9e6:	88 2f       	mov	r24, r24
 9e8:	90 e0       	ldi	r25, 0x00	; 0
 9ea:	85 57       	subi	r24, 0x75	; 117
 9ec:	9e 4f       	sbci	r25, 0xFE	; 254
 9ee:	29 81       	ldd	r18, Y+1	; 0x01
 9f0:	fc 01       	movw	r30, r24
 9f2:	20 83       	st	Z, r18
}
 9f4:	00 00       	nop
 9f6:	0f 90       	pop	r0
 9f8:	0f 90       	pop	r0
 9fa:	df 91       	pop	r29
 9fc:	cf 91       	pop	r28
 9fe:	ff 91       	pop	r31
 a00:	ef 91       	pop	r30
 a02:	9f 91       	pop	r25
 a04:	8f 91       	pop	r24
 a06:	2f 91       	pop	r18
 a08:	0f 90       	pop	r0
 a0a:	00 92 5f 00 	sts	0x005F, r0	; 0x80005f <__TEXT_REGION_LENGTH__+0x7e005f>
 a0e:	0f 90       	pop	r0
 a10:	1f 90       	pop	r1
 a12:	18 95       	reti

00000a14 <__vector_19>:
ISR(USART_UDRE_vect)
{
 a14:	1f 92       	push	r1
 a16:	0f 92       	push	r0
 a18:	00 90 5f 00 	lds	r0, 0x005F	; 0x80005f <__TEXT_REGION_LENGTH__+0x7e005f>
 a1c:	0f 92       	push	r0
 a1e:	11 24       	eor	r1, r1
 a20:	2f 93       	push	r18
 a22:	3f 93       	push	r19
 a24:	8f 93       	push	r24
 a26:	9f 93       	push	r25
 a28:	ef 93       	push	r30
 a2a:	ff 93       	push	r31
 a2c:	cf 93       	push	r28
 a2e:	df 93       	push	r29
 a30:	1f 92       	push	r1
 a32:	cd b7       	in	r28, 0x3d	; 61
 a34:	de b7       	in	r29, 0x3e	; 62
	unsigned char tmptail;
	/* Check if all data is transmitted */
	if (UART_TxHead != UART_TxTail) {
 a36:	90 91 cd 01 	lds	r25, 0x01CD	; 0x8001cd <UART_TxHead>
 a3a:	80 91 ce 01 	lds	r24, 0x01CE	; 0x8001ce <UART_TxTail>
 a3e:	98 17       	cp	r25, r24
 a40:	a1 f0       	breq	.+40     	; 0xa6a <__vector_19+0x56>
		/* Calculate buffer index */
		tmptail = ( UART_TxTail + 1 ) & UART_TX_BUFFER_MASK;
 a42:	80 91 ce 01 	lds	r24, 0x01CE	; 0x8001ce <UART_TxTail>
 a46:	8f 5f       	subi	r24, 0xFF	; 255
 a48:	8f 71       	andi	r24, 0x1F	; 31
 a4a:	89 83       	std	Y+1, r24	; 0x01
		/* Store new index */
		UART_TxTail = tmptail;
 a4c:	89 81       	ldd	r24, Y+1	; 0x01
 a4e:	80 93 ce 01 	sts	0x01CE, r24	; 0x8001ce <UART_TxTail>
		/* Start transmission */
		UDR0 = UART_TxBuf[tmptail];
 a52:	86 ec       	ldi	r24, 0xC6	; 198
 a54:	90 e0       	ldi	r25, 0x00	; 0
 a56:	29 81       	ldd	r18, Y+1	; 0x01
 a58:	22 2f       	mov	r18, r18
 a5a:	30 e0       	ldi	r19, 0x00	; 0
 a5c:	23 55       	subi	r18, 0x53	; 83
 a5e:	3e 4f       	sbci	r19, 0xFE	; 254
 a60:	f9 01       	movw	r30, r18
 a62:	20 81       	ld	r18, Z
 a64:	fc 01       	movw	r30, r24
 a66:	20 83       	st	Z, r18
		} else {
		/* Disable UDRE interrupt */
		UCSR0B &= ~(1<<UDRIE0);
	}
}
 a68:	09 c0       	rjmp	.+18     	; 0xa7c <__vector_19+0x68>
		UART_TxTail = tmptail;
		/* Start transmission */
		UDR0 = UART_TxBuf[tmptail];
		} else {
		/* Disable UDRE interrupt */
		UCSR0B &= ~(1<<UDRIE0);
 a6a:	81 ec       	ldi	r24, 0xC1	; 193
 a6c:	90 e0       	ldi	r25, 0x00	; 0
 a6e:	21 ec       	ldi	r18, 0xC1	; 193
 a70:	30 e0       	ldi	r19, 0x00	; 0
 a72:	f9 01       	movw	r30, r18
 a74:	20 81       	ld	r18, Z
 a76:	2f 7d       	andi	r18, 0xDF	; 223
 a78:	fc 01       	movw	r30, r24
 a7a:	20 83       	st	Z, r18
	}
}
 a7c:	00 00       	nop
 a7e:	0f 90       	pop	r0
 a80:	df 91       	pop	r29
 a82:	cf 91       	pop	r28
 a84:	ff 91       	pop	r31
 a86:	ef 91       	pop	r30
 a88:	9f 91       	pop	r25
 a8a:	8f 91       	pop	r24
 a8c:	3f 91       	pop	r19
 a8e:	2f 91       	pop	r18
 a90:	0f 90       	pop	r0
 a92:	00 92 5f 00 	sts	0x005F, r0	; 0x80005f <__TEXT_REGION_LENGTH__+0x7e005f>
 a96:	0f 90       	pop	r0
 a98:	1f 90       	pop	r1
 a9a:	18 95       	reti

00000a9c <ReceiveByte>:
char ReceiveByte(void)
{
 a9c:	cf 93       	push	r28
 a9e:	df 93       	push	r29
 aa0:	1f 92       	push	r1
 aa2:	cd b7       	in	r28, 0x3d	; 61
 aa4:	de b7       	in	r29, 0x3e	; 62
	unsigned char tmptail;
	/* Wait for incoming data */
	while (UART_RxHead == UART_RxTail);
 aa6:	00 00       	nop
 aa8:	90 91 ab 01 	lds	r25, 0x01AB	; 0x8001ab <UART_RxHead>
 aac:	80 91 ac 01 	lds	r24, 0x01AC	; 0x8001ac <UART_RxTail>
 ab0:	98 17       	cp	r25, r24
 ab2:	d1 f3       	breq	.-12     	; 0xaa8 <ReceiveByte+0xc>
	/* Calculate buffer index */
	tmptail = (UART_RxTail + 1) & UART_RX_BUFFER_MASK;
 ab4:	80 91 ac 01 	lds	r24, 0x01AC	; 0x8001ac <UART_RxTail>
 ab8:	8f 5f       	subi	r24, 0xFF	; 255
 aba:	8f 71       	andi	r24, 0x1F	; 31
 abc:	89 83       	std	Y+1, r24	; 0x01
	/* Store new index */
	UART_RxTail = tmptail;
 abe:	89 81       	ldd	r24, Y+1	; 0x01
 ac0:	80 93 ac 01 	sts	0x01AC, r24	; 0x8001ac <UART_RxTail>
	/* Return data */
	return UART_RxBuf[tmptail];
 ac4:	89 81       	ldd	r24, Y+1	; 0x01
 ac6:	88 2f       	mov	r24, r24
 ac8:	90 e0       	ldi	r25, 0x00	; 0
 aca:	85 57       	subi	r24, 0x75	; 117
 acc:	9e 4f       	sbci	r25, 0xFE	; 254
 ace:	fc 01       	movw	r30, r24
 ad0:	80 81       	ld	r24, Z
}
 ad2:	0f 90       	pop	r0
 ad4:	df 91       	pop	r29
 ad6:	cf 91       	pop	r28
 ad8:	08 95       	ret

00000ada <TransmitByte>:
void TransmitByte(char data)
{
 ada:	cf 93       	push	r28
 adc:	df 93       	push	r29
 ade:	00 d0       	rcall	.+0      	; 0xae0 <TransmitByte+0x6>
 ae0:	cd b7       	in	r28, 0x3d	; 61
 ae2:	de b7       	in	r29, 0x3e	; 62
 ae4:	8a 83       	std	Y+2, r24	; 0x02
	unsigned char tmphead;
	/* Calculate buffer index */
	tmphead = (UART_TxHead + 1) & UART_TX_BUFFER_MASK;
 ae6:	80 91 cd 01 	lds	r24, 0x01CD	; 0x8001cd <UART_TxHead>
 aea:	8f 5f       	subi	r24, 0xFF	; 255
 aec:	8f 71       	andi	r24, 0x1F	; 31
 aee:	89 83       	std	Y+1, r24	; 0x01
	/* Wait for free space in buffer */
	while (tmphead == UART_TxTail);
 af0:	00 00       	nop
 af2:	80 91 ce 01 	lds	r24, 0x01CE	; 0x8001ce <UART_TxTail>
 af6:	99 81       	ldd	r25, Y+1	; 0x01
 af8:	98 17       	cp	r25, r24
 afa:	d9 f3       	breq	.-10     	; 0xaf2 <TransmitByte+0x18>
	/* Store data in buffer */
	UART_TxBuf[tmphead] = data;
 afc:	89 81       	ldd	r24, Y+1	; 0x01
 afe:	88 2f       	mov	r24, r24
 b00:	90 e0       	ldi	r25, 0x00	; 0
 b02:	83 55       	subi	r24, 0x53	; 83
 b04:	9e 4f       	sbci	r25, 0xFE	; 254
 b06:	2a 81       	ldd	r18, Y+2	; 0x02
 b08:	fc 01       	movw	r30, r24
 b0a:	20 83       	st	Z, r18
	/* Store new index */
	UART_TxHead = tmphead;
 b0c:	89 81       	ldd	r24, Y+1	; 0x01
 b0e:	80 93 cd 01 	sts	0x01CD, r24	; 0x8001cd <UART_TxHead>
	/* Enable UDRE interrupt */
	UCSR0B |= (1<<UDRIE0);
 b12:	81 ec       	ldi	r24, 0xC1	; 193
 b14:	90 e0       	ldi	r25, 0x00	; 0
 b16:	21 ec       	ldi	r18, 0xC1	; 193
 b18:	30 e0       	ldi	r19, 0x00	; 0
 b1a:	f9 01       	movw	r30, r18
 b1c:	20 81       	ld	r18, Z
 b1e:	20 62       	ori	r18, 0x20	; 32
 b20:	fc 01       	movw	r30, r24
 b22:	20 83       	st	Z, r18
}
 b24:	00 00       	nop
 b26:	0f 90       	pop	r0
 b28:	0f 90       	pop	r0
 b2a:	df 91       	pop	r29
 b2c:	cf 91       	pop	r28
 b2e:	08 95       	ret

00000b30 <ReceiveString>:
* - If the received byte is equal to '\n' (Line Feed),
* the function returns.
* - The array is terminated with \0.
*/
void ReceiveString(char *str)
{
 b30:	0f 93       	push	r16
 b32:	1f 93       	push	r17
 b34:	cf 93       	push	r28
 b36:	df 93       	push	r29
 b38:	00 d0       	rcall	.+0      	; 0xb3a <ReceiveString+0xa>
 b3a:	1f 92       	push	r1
 b3c:	cd b7       	in	r28, 0x3d	; 61
 b3e:	de b7       	in	r29, 0x3e	; 62
 b40:	9b 83       	std	Y+3, r25	; 0x03
 b42:	8a 83       	std	Y+2, r24	; 0x02
	uint8_t t = 0;
 b44:	19 82       	std	Y+1, r1	; 0x01
	while ((str[t] = ReceiveByte()) != '\n')
 b46:	03 c0       	rjmp	.+6      	; 0xb4e <ReceiveString+0x1e>
	{
		t++;
 b48:	89 81       	ldd	r24, Y+1	; 0x01
 b4a:	8f 5f       	subi	r24, 0xFF	; 255
 b4c:	89 83       	std	Y+1, r24	; 0x01
* - The array is terminated with \0.
*/
void ReceiveString(char *str)
{
	uint8_t t = 0;
	while ((str[t] = ReceiveByte()) != '\n')
 b4e:	89 81       	ldd	r24, Y+1	; 0x01
 b50:	88 2f       	mov	r24, r24
 b52:	90 e0       	ldi	r25, 0x00	; 0
 b54:	2a 81       	ldd	r18, Y+2	; 0x02
 b56:	3b 81       	ldd	r19, Y+3	; 0x03
 b58:	89 01       	movw	r16, r18
 b5a:	08 0f       	add	r16, r24
 b5c:	19 1f       	adc	r17, r25
 b5e:	0e 94 4e 05 	call	0xa9c	; 0xa9c <ReceiveByte>
 b62:	f8 01       	movw	r30, r16
 b64:	80 83       	st	Z, r24
 b66:	f8 01       	movw	r30, r16
 b68:	80 81       	ld	r24, Z
 b6a:	8a 30       	cpi	r24, 0x0A	; 10
 b6c:	69 f7       	brne	.-38     	; 0xb48 <ReceiveString+0x18>
	{
		t++;
	}
	str[t++] = '\n';
 b6e:	89 81       	ldd	r24, Y+1	; 0x01
 b70:	91 e0       	ldi	r25, 0x01	; 1
 b72:	98 0f       	add	r25, r24
 b74:	99 83       	std	Y+1, r25	; 0x01
 b76:	88 2f       	mov	r24, r24
 b78:	90 e0       	ldi	r25, 0x00	; 0
 b7a:	2a 81       	ldd	r18, Y+2	; 0x02
 b7c:	3b 81       	ldd	r19, Y+3	; 0x03
 b7e:	82 0f       	add	r24, r18
 b80:	93 1f       	adc	r25, r19
 b82:	2a e0       	ldi	r18, 0x0A	; 10
 b84:	fc 01       	movw	r30, r24
 b86:	20 83       	st	Z, r18
	str[t] = '\0';
 b88:	89 81       	ldd	r24, Y+1	; 0x01
 b8a:	88 2f       	mov	r24, r24
 b8c:	90 e0       	ldi	r25, 0x00	; 0
 b8e:	2a 81       	ldd	r18, Y+2	; 0x02
 b90:	3b 81       	ldd	r19, Y+3	; 0x03
 b92:	82 0f       	add	r24, r18
 b94:	93 1f       	adc	r25, r19
 b96:	fc 01       	movw	r30, r24
 b98:	10 82       	st	Z, r1
}
 b9a:	00 00       	nop
 b9c:	0f 90       	pop	r0
 b9e:	0f 90       	pop	r0
 ba0:	0f 90       	pop	r0
 ba2:	df 91       	pop	r29
 ba4:	cf 91       	pop	r28
 ba6:	1f 91       	pop	r17
 ba8:	0f 91       	pop	r16
 baa:	08 95       	ret

00000bac <TransmitString>:
* transmit a byte via the UART
* - Bytes are transmitted until the terminator
* character '\0' is detected. Then the function returns.
*/
void TransmitString(char *str)
{
 bac:	cf 93       	push	r28
 bae:	df 93       	push	r29
 bb0:	00 d0       	rcall	.+0      	; 0xbb2 <TransmitString+0x6>
 bb2:	cd b7       	in	r28, 0x3d	; 61
 bb4:	de b7       	in	r29, 0x3e	; 62
 bb6:	9a 83       	std	Y+2, r25	; 0x02
 bb8:	89 83       	std	Y+1, r24	; 0x01
	while(*str)
 bba:	0b c0       	rjmp	.+22     	; 0xbd2 <TransmitString+0x26>
	{
		TransmitByte(*str++);
 bbc:	89 81       	ldd	r24, Y+1	; 0x01
 bbe:	9a 81       	ldd	r25, Y+2	; 0x02
 bc0:	9c 01       	movw	r18, r24
 bc2:	2f 5f       	subi	r18, 0xFF	; 255
 bc4:	3f 4f       	sbci	r19, 0xFF	; 255
 bc6:	3a 83       	std	Y+2, r19	; 0x02
 bc8:	29 83       	std	Y+1, r18	; 0x01
 bca:	fc 01       	movw	r30, r24
 bcc:	80 81       	ld	r24, Z
 bce:	0e 94 6d 05 	call	0xada	; 0xada <TransmitByte>
* - Bytes are transmitted until the terminator
* character '\0' is detected. Then the function returns.
*/
void TransmitString(char *str)
{
	while(*str)
 bd2:	89 81       	ldd	r24, Y+1	; 0x01
 bd4:	9a 81       	ldd	r25, Y+2	; 0x02
 bd6:	fc 01       	movw	r30, r24
 bd8:	80 81       	ld	r24, Z
 bda:	88 23       	and	r24, r24
 bdc:	79 f7       	brne	.-34     	; 0xbbc <TransmitString+0x10>
	{
		TransmitByte(*str++);
	}
}
 bde:	00 00       	nop
 be0:	0f 90       	pop	r0
 be2:	0f 90       	pop	r0
 be4:	df 91       	pop	r29
 be6:	cf 91       	pop	r28
 be8:	08 95       	ret

00000bea <__cmpsf2>:
 bea:	0e 94 29 06 	call	0xc52	; 0xc52 <__fp_cmp>
 bee:	08 f4       	brcc	.+2      	; 0xbf2 <__cmpsf2+0x8>
 bf0:	81 e0       	ldi	r24, 0x01	; 1
 bf2:	08 95       	ret

00000bf4 <__fixunssfsi>:
 bf4:	0e 94 55 06 	call	0xcaa	; 0xcaa <__fp_splitA>
 bf8:	88 f0       	brcs	.+34     	; 0xc1c <__fixunssfsi+0x28>
 bfa:	9f 57       	subi	r25, 0x7F	; 127
 bfc:	98 f0       	brcs	.+38     	; 0xc24 <__fixunssfsi+0x30>
 bfe:	b9 2f       	mov	r27, r25
 c00:	99 27       	eor	r25, r25
 c02:	b7 51       	subi	r27, 0x17	; 23
 c04:	b0 f0       	brcs	.+44     	; 0xc32 <__fixunssfsi+0x3e>
 c06:	e1 f0       	breq	.+56     	; 0xc40 <__fixunssfsi+0x4c>
 c08:	66 0f       	add	r22, r22
 c0a:	77 1f       	adc	r23, r23
 c0c:	88 1f       	adc	r24, r24
 c0e:	99 1f       	adc	r25, r25
 c10:	1a f0       	brmi	.+6      	; 0xc18 <__fixunssfsi+0x24>
 c12:	ba 95       	dec	r27
 c14:	c9 f7       	brne	.-14     	; 0xc08 <__fixunssfsi+0x14>
 c16:	14 c0       	rjmp	.+40     	; 0xc40 <__fixunssfsi+0x4c>
 c18:	b1 30       	cpi	r27, 0x01	; 1
 c1a:	91 f0       	breq	.+36     	; 0xc40 <__fixunssfsi+0x4c>
 c1c:	0e 94 6f 06 	call	0xcde	; 0xcde <__fp_zero>
 c20:	b1 e0       	ldi	r27, 0x01	; 1
 c22:	08 95       	ret
 c24:	0c 94 6f 06 	jmp	0xcde	; 0xcde <__fp_zero>
 c28:	67 2f       	mov	r22, r23
 c2a:	78 2f       	mov	r23, r24
 c2c:	88 27       	eor	r24, r24
 c2e:	b8 5f       	subi	r27, 0xF8	; 248
 c30:	39 f0       	breq	.+14     	; 0xc40 <__fixunssfsi+0x4c>
 c32:	b9 3f       	cpi	r27, 0xF9	; 249
 c34:	cc f3       	brlt	.-14     	; 0xc28 <__fixunssfsi+0x34>
 c36:	86 95       	lsr	r24
 c38:	77 95       	ror	r23
 c3a:	67 95       	ror	r22
 c3c:	b3 95       	inc	r27
 c3e:	d9 f7       	brne	.-10     	; 0xc36 <__fixunssfsi+0x42>
 c40:	3e f4       	brtc	.+14     	; 0xc50 <__fixunssfsi+0x5c>
 c42:	90 95       	com	r25
 c44:	80 95       	com	r24
 c46:	70 95       	com	r23
 c48:	61 95       	neg	r22
 c4a:	7f 4f       	sbci	r23, 0xFF	; 255
 c4c:	8f 4f       	sbci	r24, 0xFF	; 255
 c4e:	9f 4f       	sbci	r25, 0xFF	; 255
 c50:	08 95       	ret

00000c52 <__fp_cmp>:
 c52:	99 0f       	add	r25, r25
 c54:	00 08       	sbc	r0, r0
 c56:	55 0f       	add	r21, r21
 c58:	aa 0b       	sbc	r26, r26
 c5a:	e0 e8       	ldi	r30, 0x80	; 128
 c5c:	fe ef       	ldi	r31, 0xFE	; 254
 c5e:	16 16       	cp	r1, r22
 c60:	17 06       	cpc	r1, r23
 c62:	e8 07       	cpc	r30, r24
 c64:	f9 07       	cpc	r31, r25
 c66:	c0 f0       	brcs	.+48     	; 0xc98 <__fp_cmp+0x46>
 c68:	12 16       	cp	r1, r18
 c6a:	13 06       	cpc	r1, r19
 c6c:	e4 07       	cpc	r30, r20
 c6e:	f5 07       	cpc	r31, r21
 c70:	98 f0       	brcs	.+38     	; 0xc98 <__fp_cmp+0x46>
 c72:	62 1b       	sub	r22, r18
 c74:	73 0b       	sbc	r23, r19
 c76:	84 0b       	sbc	r24, r20
 c78:	95 0b       	sbc	r25, r21
 c7a:	39 f4       	brne	.+14     	; 0xc8a <__fp_cmp+0x38>
 c7c:	0a 26       	eor	r0, r26
 c7e:	61 f0       	breq	.+24     	; 0xc98 <__fp_cmp+0x46>
 c80:	23 2b       	or	r18, r19
 c82:	24 2b       	or	r18, r20
 c84:	25 2b       	or	r18, r21
 c86:	21 f4       	brne	.+8      	; 0xc90 <__fp_cmp+0x3e>
 c88:	08 95       	ret
 c8a:	0a 26       	eor	r0, r26
 c8c:	09 f4       	brne	.+2      	; 0xc90 <__fp_cmp+0x3e>
 c8e:	a1 40       	sbci	r26, 0x01	; 1
 c90:	a6 95       	lsr	r26
 c92:	8f ef       	ldi	r24, 0xFF	; 255
 c94:	81 1d       	adc	r24, r1
 c96:	81 1d       	adc	r24, r1
 c98:	08 95       	ret

00000c9a <__fp_split3>:
 c9a:	57 fd       	sbrc	r21, 7
 c9c:	90 58       	subi	r25, 0x80	; 128
 c9e:	44 0f       	add	r20, r20
 ca0:	55 1f       	adc	r21, r21
 ca2:	59 f0       	breq	.+22     	; 0xcba <__fp_splitA+0x10>
 ca4:	5f 3f       	cpi	r21, 0xFF	; 255
 ca6:	71 f0       	breq	.+28     	; 0xcc4 <__fp_splitA+0x1a>
 ca8:	47 95       	ror	r20

00000caa <__fp_splitA>:
 caa:	88 0f       	add	r24, r24
 cac:	97 fb       	bst	r25, 7
 cae:	99 1f       	adc	r25, r25
 cb0:	61 f0       	breq	.+24     	; 0xcca <__fp_splitA+0x20>
 cb2:	9f 3f       	cpi	r25, 0xFF	; 255
 cb4:	79 f0       	breq	.+30     	; 0xcd4 <__fp_splitA+0x2a>
 cb6:	87 95       	ror	r24
 cb8:	08 95       	ret
 cba:	12 16       	cp	r1, r18
 cbc:	13 06       	cpc	r1, r19
 cbe:	14 06       	cpc	r1, r20
 cc0:	55 1f       	adc	r21, r21
 cc2:	f2 cf       	rjmp	.-28     	; 0xca8 <__fp_split3+0xe>
 cc4:	46 95       	lsr	r20
 cc6:	f1 df       	rcall	.-30     	; 0xcaa <__fp_splitA>
 cc8:	08 c0       	rjmp	.+16     	; 0xcda <__fp_splitA+0x30>
 cca:	16 16       	cp	r1, r22
 ccc:	17 06       	cpc	r1, r23
 cce:	18 06       	cpc	r1, r24
 cd0:	99 1f       	adc	r25, r25
 cd2:	f1 cf       	rjmp	.-30     	; 0xcb6 <__fp_splitA+0xc>
 cd4:	86 95       	lsr	r24
 cd6:	71 05       	cpc	r23, r1
 cd8:	61 05       	cpc	r22, r1
 cda:	08 94       	sec
 cdc:	08 95       	ret

00000cde <__fp_zero>:
 cde:	e8 94       	clt

00000ce0 <__fp_szero>:
 ce0:	bb 27       	eor	r27, r27
 ce2:	66 27       	eor	r22, r22
 ce4:	77 27       	eor	r23, r23
 ce6:	cb 01       	movw	r24, r22
 ce8:	97 f9       	bld	r25, 7
 cea:	08 95       	ret

00000cec <__gesf2>:
 cec:	0e 94 29 06 	call	0xc52	; 0xc52 <__fp_cmp>
 cf0:	08 f4       	brcc	.+2      	; 0xcf4 <__gesf2+0x8>
 cf2:	8f ef       	ldi	r24, 0xFF	; 255
 cf4:	08 95       	ret

00000cf6 <__mulsf3>:
 cf6:	0e 94 8e 06 	call	0xd1c	; 0xd1c <__mulsf3x>
 cfa:	0c 94 ff 06 	jmp	0xdfe	; 0xdfe <__fp_round>
 cfe:	0e 94 f1 06 	call	0xde2	; 0xde2 <__fp_pscA>
 d02:	38 f0       	brcs	.+14     	; 0xd12 <__mulsf3+0x1c>
 d04:	0e 94 f8 06 	call	0xdf0	; 0xdf0 <__fp_pscB>
 d08:	20 f0       	brcs	.+8      	; 0xd12 <__mulsf3+0x1c>
 d0a:	95 23       	and	r25, r21
 d0c:	11 f0       	breq	.+4      	; 0xd12 <__mulsf3+0x1c>
 d0e:	0c 94 e8 06 	jmp	0xdd0	; 0xdd0 <__fp_inf>
 d12:	0c 94 ee 06 	jmp	0xddc	; 0xddc <__fp_nan>
 d16:	11 24       	eor	r1, r1
 d18:	0c 94 70 06 	jmp	0xce0	; 0xce0 <__fp_szero>

00000d1c <__mulsf3x>:
 d1c:	0e 94 4d 06 	call	0xc9a	; 0xc9a <__fp_split3>
 d20:	70 f3       	brcs	.-36     	; 0xcfe <__mulsf3+0x8>

00000d22 <__mulsf3_pse>:
 d22:	95 9f       	mul	r25, r21
 d24:	c1 f3       	breq	.-16     	; 0xd16 <__mulsf3+0x20>
 d26:	95 0f       	add	r25, r21
 d28:	50 e0       	ldi	r21, 0x00	; 0
 d2a:	55 1f       	adc	r21, r21
 d2c:	62 9f       	mul	r22, r18
 d2e:	f0 01       	movw	r30, r0
 d30:	72 9f       	mul	r23, r18
 d32:	bb 27       	eor	r27, r27
 d34:	f0 0d       	add	r31, r0
 d36:	b1 1d       	adc	r27, r1
 d38:	63 9f       	mul	r22, r19
 d3a:	aa 27       	eor	r26, r26
 d3c:	f0 0d       	add	r31, r0
 d3e:	b1 1d       	adc	r27, r1
 d40:	aa 1f       	adc	r26, r26
 d42:	64 9f       	mul	r22, r20
 d44:	66 27       	eor	r22, r22
 d46:	b0 0d       	add	r27, r0
 d48:	a1 1d       	adc	r26, r1
 d4a:	66 1f       	adc	r22, r22
 d4c:	82 9f       	mul	r24, r18
 d4e:	22 27       	eor	r18, r18
 d50:	b0 0d       	add	r27, r0
 d52:	a1 1d       	adc	r26, r1
 d54:	62 1f       	adc	r22, r18
 d56:	73 9f       	mul	r23, r19
 d58:	b0 0d       	add	r27, r0
 d5a:	a1 1d       	adc	r26, r1
 d5c:	62 1f       	adc	r22, r18
 d5e:	83 9f       	mul	r24, r19
 d60:	a0 0d       	add	r26, r0
 d62:	61 1d       	adc	r22, r1
 d64:	22 1f       	adc	r18, r18
 d66:	74 9f       	mul	r23, r20
 d68:	33 27       	eor	r19, r19
 d6a:	a0 0d       	add	r26, r0
 d6c:	61 1d       	adc	r22, r1
 d6e:	23 1f       	adc	r18, r19
 d70:	84 9f       	mul	r24, r20
 d72:	60 0d       	add	r22, r0
 d74:	21 1d       	adc	r18, r1
 d76:	82 2f       	mov	r24, r18
 d78:	76 2f       	mov	r23, r22
 d7a:	6a 2f       	mov	r22, r26
 d7c:	11 24       	eor	r1, r1
 d7e:	9f 57       	subi	r25, 0x7F	; 127
 d80:	50 40       	sbci	r21, 0x00	; 0
 d82:	9a f0       	brmi	.+38     	; 0xdaa <__mulsf3_pse+0x88>
 d84:	f1 f0       	breq	.+60     	; 0xdc2 <__mulsf3_pse+0xa0>
 d86:	88 23       	and	r24, r24
 d88:	4a f0       	brmi	.+18     	; 0xd9c <__mulsf3_pse+0x7a>
 d8a:	ee 0f       	add	r30, r30
 d8c:	ff 1f       	adc	r31, r31
 d8e:	bb 1f       	adc	r27, r27
 d90:	66 1f       	adc	r22, r22
 d92:	77 1f       	adc	r23, r23
 d94:	88 1f       	adc	r24, r24
 d96:	91 50       	subi	r25, 0x01	; 1
 d98:	50 40       	sbci	r21, 0x00	; 0
 d9a:	a9 f7       	brne	.-22     	; 0xd86 <__mulsf3_pse+0x64>
 d9c:	9e 3f       	cpi	r25, 0xFE	; 254
 d9e:	51 05       	cpc	r21, r1
 da0:	80 f0       	brcs	.+32     	; 0xdc2 <__mulsf3_pse+0xa0>
 da2:	0c 94 e8 06 	jmp	0xdd0	; 0xdd0 <__fp_inf>
 da6:	0c 94 70 06 	jmp	0xce0	; 0xce0 <__fp_szero>
 daa:	5f 3f       	cpi	r21, 0xFF	; 255
 dac:	e4 f3       	brlt	.-8      	; 0xda6 <__mulsf3_pse+0x84>
 dae:	98 3e       	cpi	r25, 0xE8	; 232
 db0:	d4 f3       	brlt	.-12     	; 0xda6 <__mulsf3_pse+0x84>
 db2:	86 95       	lsr	r24
 db4:	77 95       	ror	r23
 db6:	67 95       	ror	r22
 db8:	b7 95       	ror	r27
 dba:	f7 95       	ror	r31
 dbc:	e7 95       	ror	r30
 dbe:	9f 5f       	subi	r25, 0xFF	; 255
 dc0:	c1 f7       	brne	.-16     	; 0xdb2 <__mulsf3_pse+0x90>
 dc2:	fe 2b       	or	r31, r30
 dc4:	88 0f       	add	r24, r24
 dc6:	91 1d       	adc	r25, r1
 dc8:	96 95       	lsr	r25
 dca:	87 95       	ror	r24
 dcc:	97 f9       	bld	r25, 7
 dce:	08 95       	ret

00000dd0 <__fp_inf>:
 dd0:	97 f9       	bld	r25, 7
 dd2:	9f 67       	ori	r25, 0x7F	; 127
 dd4:	80 e8       	ldi	r24, 0x80	; 128
 dd6:	70 e0       	ldi	r23, 0x00	; 0
 dd8:	60 e0       	ldi	r22, 0x00	; 0
 dda:	08 95       	ret

00000ddc <__fp_nan>:
 ddc:	9f ef       	ldi	r25, 0xFF	; 255
 dde:	80 ec       	ldi	r24, 0xC0	; 192
 de0:	08 95       	ret

00000de2 <__fp_pscA>:
 de2:	00 24       	eor	r0, r0
 de4:	0a 94       	dec	r0
 de6:	16 16       	cp	r1, r22
 de8:	17 06       	cpc	r1, r23
 dea:	18 06       	cpc	r1, r24
 dec:	09 06       	cpc	r0, r25
 dee:	08 95       	ret

00000df0 <__fp_pscB>:
 df0:	00 24       	eor	r0, r0
 df2:	0a 94       	dec	r0
 df4:	12 16       	cp	r1, r18
 df6:	13 06       	cpc	r1, r19
 df8:	14 06       	cpc	r1, r20
 dfa:	05 06       	cpc	r0, r21
 dfc:	08 95       	ret

00000dfe <__fp_round>:
 dfe:	09 2e       	mov	r0, r25
 e00:	03 94       	inc	r0
 e02:	00 0c       	add	r0, r0
 e04:	11 f4       	brne	.+4      	; 0xe0a <__fp_round+0xc>
 e06:	88 23       	and	r24, r24
 e08:	52 f0       	brmi	.+20     	; 0xe1e <__fp_round+0x20>
 e0a:	bb 0f       	add	r27, r27
 e0c:	40 f4       	brcc	.+16     	; 0xe1e <__fp_round+0x20>
 e0e:	bf 2b       	or	r27, r31
 e10:	11 f4       	brne	.+4      	; 0xe16 <__fp_round+0x18>
 e12:	60 ff       	sbrs	r22, 0
 e14:	04 c0       	rjmp	.+8      	; 0xe1e <__fp_round+0x20>
 e16:	6f 5f       	subi	r22, 0xFF	; 255
 e18:	7f 4f       	sbci	r23, 0xFF	; 255
 e1a:	8f 4f       	sbci	r24, 0xFF	; 255
 e1c:	9f 4f       	sbci	r25, 0xFF	; 255
 e1e:	08 95       	ret

00000e20 <__divmodhi4>:
 e20:	97 fb       	bst	r25, 7
 e22:	07 2e       	mov	r0, r23
 e24:	16 f4       	brtc	.+4      	; 0xe2a <__divmodhi4+0xa>
 e26:	00 94       	com	r0
 e28:	07 d0       	rcall	.+14     	; 0xe38 <__divmodhi4_neg1>
 e2a:	77 fd       	sbrc	r23, 7
 e2c:	09 d0       	rcall	.+18     	; 0xe40 <__divmodhi4_neg2>
 e2e:	0e 94 24 07 	call	0xe48	; 0xe48 <__udivmodhi4>
 e32:	07 fc       	sbrc	r0, 7
 e34:	05 d0       	rcall	.+10     	; 0xe40 <__divmodhi4_neg2>
 e36:	3e f4       	brtc	.+14     	; 0xe46 <__divmodhi4_exit>

00000e38 <__divmodhi4_neg1>:
 e38:	90 95       	com	r25
 e3a:	81 95       	neg	r24
 e3c:	9f 4f       	sbci	r25, 0xFF	; 255
 e3e:	08 95       	ret

00000e40 <__divmodhi4_neg2>:
 e40:	70 95       	com	r23
 e42:	61 95       	neg	r22
 e44:	7f 4f       	sbci	r23, 0xFF	; 255

00000e46 <__divmodhi4_exit>:
 e46:	08 95       	ret

00000e48 <__udivmodhi4>:
 e48:	aa 1b       	sub	r26, r26
 e4a:	bb 1b       	sub	r27, r27
 e4c:	51 e1       	ldi	r21, 0x11	; 17
 e4e:	07 c0       	rjmp	.+14     	; 0xe5e <__udivmodhi4_ep>

00000e50 <__udivmodhi4_loop>:
 e50:	aa 1f       	adc	r26, r26
 e52:	bb 1f       	adc	r27, r27
 e54:	a6 17       	cp	r26, r22
 e56:	b7 07       	cpc	r27, r23
 e58:	10 f0       	brcs	.+4      	; 0xe5e <__udivmodhi4_ep>
 e5a:	a6 1b       	sub	r26, r22
 e5c:	b7 0b       	sbc	r27, r23

00000e5e <__udivmodhi4_ep>:
 e5e:	88 1f       	adc	r24, r24
 e60:	99 1f       	adc	r25, r25
 e62:	5a 95       	dec	r21
 e64:	a9 f7       	brne	.-22     	; 0xe50 <__udivmodhi4_loop>
 e66:	80 95       	com	r24
 e68:	90 95       	com	r25
 e6a:	bc 01       	movw	r22, r24
 e6c:	cd 01       	movw	r24, r26
 e6e:	08 95       	ret

00000e70 <do_rand>:
 e70:	8f 92       	push	r8
 e72:	9f 92       	push	r9
 e74:	af 92       	push	r10
 e76:	bf 92       	push	r11
 e78:	cf 92       	push	r12
 e7a:	df 92       	push	r13
 e7c:	ef 92       	push	r14
 e7e:	ff 92       	push	r15
 e80:	cf 93       	push	r28
 e82:	df 93       	push	r29
 e84:	ec 01       	movw	r28, r24
 e86:	68 81       	ld	r22, Y
 e88:	79 81       	ldd	r23, Y+1	; 0x01
 e8a:	8a 81       	ldd	r24, Y+2	; 0x02
 e8c:	9b 81       	ldd	r25, Y+3	; 0x03
 e8e:	61 15       	cp	r22, r1
 e90:	71 05       	cpc	r23, r1
 e92:	81 05       	cpc	r24, r1
 e94:	91 05       	cpc	r25, r1
 e96:	21 f4       	brne	.+8      	; 0xea0 <do_rand+0x30>
 e98:	64 e2       	ldi	r22, 0x24	; 36
 e9a:	79 ed       	ldi	r23, 0xD9	; 217
 e9c:	8b e5       	ldi	r24, 0x5B	; 91
 e9e:	97 e0       	ldi	r25, 0x07	; 7
 ea0:	2d e1       	ldi	r18, 0x1D	; 29
 ea2:	33 ef       	ldi	r19, 0xF3	; 243
 ea4:	41 e0       	ldi	r20, 0x01	; 1
 ea6:	50 e0       	ldi	r21, 0x00	; 0
 ea8:	0e 94 94 07 	call	0xf28	; 0xf28 <__divmodsi4>
 eac:	49 01       	movw	r8, r18
 eae:	5a 01       	movw	r10, r20
 eb0:	9b 01       	movw	r18, r22
 eb2:	ac 01       	movw	r20, r24
 eb4:	a7 ea       	ldi	r26, 0xA7	; 167
 eb6:	b1 e4       	ldi	r27, 0x41	; 65
 eb8:	0e 94 b3 07 	call	0xf66	; 0xf66 <__muluhisi3>
 ebc:	6b 01       	movw	r12, r22
 ebe:	7c 01       	movw	r14, r24
 ec0:	ac ee       	ldi	r26, 0xEC	; 236
 ec2:	b4 ef       	ldi	r27, 0xF4	; 244
 ec4:	a5 01       	movw	r20, r10
 ec6:	94 01       	movw	r18, r8
 ec8:	0e 94 c1 07 	call	0xf82	; 0xf82 <__mulohisi3>
 ecc:	dc 01       	movw	r26, r24
 ece:	cb 01       	movw	r24, r22
 ed0:	8c 0d       	add	r24, r12
 ed2:	9d 1d       	adc	r25, r13
 ed4:	ae 1d       	adc	r26, r14
 ed6:	bf 1d       	adc	r27, r15
 ed8:	b7 ff       	sbrs	r27, 7
 eda:	03 c0       	rjmp	.+6      	; 0xee2 <do_rand+0x72>
 edc:	01 97       	sbiw	r24, 0x01	; 1
 ede:	a1 09       	sbc	r26, r1
 ee0:	b0 48       	sbci	r27, 0x80	; 128
 ee2:	88 83       	st	Y, r24
 ee4:	99 83       	std	Y+1, r25	; 0x01
 ee6:	aa 83       	std	Y+2, r26	; 0x02
 ee8:	bb 83       	std	Y+3, r27	; 0x03
 eea:	9f 77       	andi	r25, 0x7F	; 127
 eec:	df 91       	pop	r29
 eee:	cf 91       	pop	r28
 ef0:	ff 90       	pop	r15
 ef2:	ef 90       	pop	r14
 ef4:	df 90       	pop	r13
 ef6:	cf 90       	pop	r12
 ef8:	bf 90       	pop	r11
 efa:	af 90       	pop	r10
 efc:	9f 90       	pop	r9
 efe:	8f 90       	pop	r8
 f00:	08 95       	ret

00000f02 <rand_r>:
 f02:	0e 94 38 07 	call	0xe70	; 0xe70 <do_rand>
 f06:	08 95       	ret

00000f08 <rand>:
 f08:	80 e0       	ldi	r24, 0x00	; 0
 f0a:	91 e0       	ldi	r25, 0x01	; 1
 f0c:	0e 94 38 07 	call	0xe70	; 0xe70 <do_rand>
 f10:	08 95       	ret

00000f12 <srand>:
 f12:	a0 e0       	ldi	r26, 0x00	; 0
 f14:	b0 e0       	ldi	r27, 0x00	; 0
 f16:	80 93 00 01 	sts	0x0100, r24	; 0x800100 <__data_start>
 f1a:	90 93 01 01 	sts	0x0101, r25	; 0x800101 <__data_start+0x1>
 f1e:	a0 93 02 01 	sts	0x0102, r26	; 0x800102 <__data_start+0x2>
 f22:	b0 93 03 01 	sts	0x0103, r27	; 0x800103 <__data_start+0x3>
 f26:	08 95       	ret

00000f28 <__divmodsi4>:
 f28:	05 2e       	mov	r0, r21
 f2a:	97 fb       	bst	r25, 7
 f2c:	1e f4       	brtc	.+6      	; 0xf34 <__divmodsi4+0xc>
 f2e:	00 94       	com	r0
 f30:	0e 94 ab 07 	call	0xf56	; 0xf56 <__negsi2>
 f34:	57 fd       	sbrc	r21, 7
 f36:	07 d0       	rcall	.+14     	; 0xf46 <__divmodsi4_neg2>
 f38:	0e 94 c6 07 	call	0xf8c	; 0xf8c <__udivmodsi4>
 f3c:	07 fc       	sbrc	r0, 7
 f3e:	03 d0       	rcall	.+6      	; 0xf46 <__divmodsi4_neg2>
 f40:	4e f4       	brtc	.+18     	; 0xf54 <__divmodsi4_exit>
 f42:	0c 94 ab 07 	jmp	0xf56	; 0xf56 <__negsi2>

00000f46 <__divmodsi4_neg2>:
 f46:	50 95       	com	r21
 f48:	40 95       	com	r20
 f4a:	30 95       	com	r19
 f4c:	21 95       	neg	r18
 f4e:	3f 4f       	sbci	r19, 0xFF	; 255
 f50:	4f 4f       	sbci	r20, 0xFF	; 255
 f52:	5f 4f       	sbci	r21, 0xFF	; 255

00000f54 <__divmodsi4_exit>:
 f54:	08 95       	ret

00000f56 <__negsi2>:
 f56:	90 95       	com	r25
 f58:	80 95       	com	r24
 f5a:	70 95       	com	r23
 f5c:	61 95       	neg	r22
 f5e:	7f 4f       	sbci	r23, 0xFF	; 255
 f60:	8f 4f       	sbci	r24, 0xFF	; 255
 f62:	9f 4f       	sbci	r25, 0xFF	; 255
 f64:	08 95       	ret

00000f66 <__muluhisi3>:
 f66:	0e 94 e8 07 	call	0xfd0	; 0xfd0 <__umulhisi3>
 f6a:	a5 9f       	mul	r26, r21
 f6c:	90 0d       	add	r25, r0
 f6e:	b4 9f       	mul	r27, r20
 f70:	90 0d       	add	r25, r0
 f72:	a4 9f       	mul	r26, r20
 f74:	80 0d       	add	r24, r0
 f76:	91 1d       	adc	r25, r1
 f78:	11 24       	eor	r1, r1
 f7a:	08 95       	ret

00000f7c <__mulshisi3>:
 f7c:	b7 ff       	sbrs	r27, 7
 f7e:	0c 94 b3 07 	jmp	0xf66	; 0xf66 <__muluhisi3>

00000f82 <__mulohisi3>:
 f82:	0e 94 b3 07 	call	0xf66	; 0xf66 <__muluhisi3>
 f86:	82 1b       	sub	r24, r18
 f88:	93 0b       	sbc	r25, r19
 f8a:	08 95       	ret

00000f8c <__udivmodsi4>:
 f8c:	a1 e2       	ldi	r26, 0x21	; 33
 f8e:	1a 2e       	mov	r1, r26
 f90:	aa 1b       	sub	r26, r26
 f92:	bb 1b       	sub	r27, r27
 f94:	fd 01       	movw	r30, r26
 f96:	0d c0       	rjmp	.+26     	; 0xfb2 <__udivmodsi4_ep>

00000f98 <__udivmodsi4_loop>:
 f98:	aa 1f       	adc	r26, r26
 f9a:	bb 1f       	adc	r27, r27
 f9c:	ee 1f       	adc	r30, r30
 f9e:	ff 1f       	adc	r31, r31
 fa0:	a2 17       	cp	r26, r18
 fa2:	b3 07       	cpc	r27, r19
 fa4:	e4 07       	cpc	r30, r20
 fa6:	f5 07       	cpc	r31, r21
 fa8:	20 f0       	brcs	.+8      	; 0xfb2 <__udivmodsi4_ep>
 faa:	a2 1b       	sub	r26, r18
 fac:	b3 0b       	sbc	r27, r19
 fae:	e4 0b       	sbc	r30, r20
 fb0:	f5 0b       	sbc	r31, r21

00000fb2 <__udivmodsi4_ep>:
 fb2:	66 1f       	adc	r22, r22
 fb4:	77 1f       	adc	r23, r23
 fb6:	88 1f       	adc	r24, r24
 fb8:	99 1f       	adc	r25, r25
 fba:	1a 94       	dec	r1
 fbc:	69 f7       	brne	.-38     	; 0xf98 <__udivmodsi4_loop>
 fbe:	60 95       	com	r22
 fc0:	70 95       	com	r23
 fc2:	80 95       	com	r24
 fc4:	90 95       	com	r25
 fc6:	9b 01       	movw	r18, r22
 fc8:	ac 01       	movw	r20, r24
 fca:	bd 01       	movw	r22, r26
 fcc:	cf 01       	movw	r24, r30
 fce:	08 95       	ret

00000fd0 <__umulhisi3>:
 fd0:	a2 9f       	mul	r26, r18
 fd2:	b0 01       	movw	r22, r0
 fd4:	b3 9f       	mul	r27, r19
 fd6:	c0 01       	movw	r24, r0
 fd8:	a3 9f       	mul	r26, r19
 fda:	70 0d       	add	r23, r0
 fdc:	81 1d       	adc	r24, r1
 fde:	11 24       	eor	r1, r1
 fe0:	91 1d       	adc	r25, r1
 fe2:	b2 9f       	mul	r27, r18
 fe4:	70 0d       	add	r23, r0
 fe6:	81 1d       	adc	r24, r1
 fe8:	11 24       	eor	r1, r1
 fea:	91 1d       	adc	r25, r1
 fec:	08 95       	ret

00000fee <_exit>:
 fee:	f8 94       	cli

00000ff0 <__stop_program>:
 ff0:	ff cf       	rjmp	.-2      	; 0xff0 <__stop_program>
